
Kandidatprojekt.elf:     file format elf32-avr

Sections:
Idx Name          Size      VMA       LMA       File off  Algn
  0 .data         000000fe  00800100  00002534  000025c8  2**0
                  CONTENTS, ALLOC, LOAD, DATA
  1 .text         00002534  00000000  00000000  00000094  2**1
                  CONTENTS, ALLOC, LOAD, READONLY, CODE
  2 .bss          00000128  008001fe  008001fe  000026c6  2**0
                  ALLOC
  3 .comment      00000030  00000000  00000000  000026c6  2**0
                  CONTENTS, READONLY
  4 .debug_aranges 00000218  00000000  00000000  000026f6  2**0
                  CONTENTS, READONLY, DEBUGGING
  5 .debug_info   000034fd  00000000  00000000  0000290e  2**0
                  CONTENTS, READONLY, DEBUGGING
  6 .debug_abbrev 00000d77  00000000  00000000  00005e0b  2**0
                  CONTENTS, READONLY, DEBUGGING
  7 .debug_line   00002da2  00000000  00000000  00006b82  2**0
                  CONTENTS, READONLY, DEBUGGING
  8 .debug_frame  000005cc  00000000  00000000  00009924  2**2
                  CONTENTS, READONLY, DEBUGGING
  9 .debug_str    00010d2a  00000000  00000000  00009ef0  2**0
                  CONTENTS, READONLY, DEBUGGING
 10 .debug_loc    00001930  00000000  00000000  0001ac1a  2**0
                  CONTENTS, READONLY, DEBUGGING
 11 .debug_ranges 000001b0  00000000  00000000  0001c54a  2**0
                  CONTENTS, READONLY, DEBUGGING
 12 .debug_macro  00004090  00000000  00000000  0001c6fa  2**0
                  CONTENTS, READONLY, DEBUGGING

Disassembly of section .text:

00000000 <__vectors>:
       0:	45 c0       	rjmp	.+138    	; 0x8c <__ctors_end>
       2:	00 00       	nop
       4:	62 c0       	rjmp	.+196    	; 0xca <__bad_interrupt>
       6:	00 00       	nop
       8:	60 c0       	rjmp	.+192    	; 0xca <__bad_interrupt>
       a:	00 00       	nop
       c:	5e c0       	rjmp	.+188    	; 0xca <__bad_interrupt>
       e:	00 00       	nop
      10:	5c c0       	rjmp	.+184    	; 0xca <__bad_interrupt>
      12:	00 00       	nop
      14:	5a c0       	rjmp	.+180    	; 0xca <__bad_interrupt>
      16:	00 00       	nop
      18:	58 c0       	rjmp	.+176    	; 0xca <__bad_interrupt>
      1a:	00 00       	nop
      1c:	56 c0       	rjmp	.+172    	; 0xca <__bad_interrupt>
      1e:	00 00       	nop
      20:	54 c0       	rjmp	.+168    	; 0xca <__bad_interrupt>
      22:	00 00       	nop
      24:	52 c0       	rjmp	.+164    	; 0xca <__bad_interrupt>
      26:	00 00       	nop
      28:	50 c0       	rjmp	.+160    	; 0xca <__bad_interrupt>
      2a:	00 00       	nop
      2c:	4e c0       	rjmp	.+156    	; 0xca <__bad_interrupt>
      2e:	00 00       	nop
      30:	4c c0       	rjmp	.+152    	; 0xca <__bad_interrupt>
      32:	00 00       	nop
      34:	4a c0       	rjmp	.+148    	; 0xca <__bad_interrupt>
      36:	00 00       	nop
      38:	48 c0       	rjmp	.+144    	; 0xca <__bad_interrupt>
      3a:	00 00       	nop
      3c:	46 c0       	rjmp	.+140    	; 0xca <__bad_interrupt>
      3e:	00 00       	nop
      40:	44 c0       	rjmp	.+136    	; 0xca <__bad_interrupt>
      42:	00 00       	nop
      44:	42 c0       	rjmp	.+132    	; 0xca <__bad_interrupt>
      46:	00 00       	nop
      48:	40 c0       	rjmp	.+128    	; 0xca <__bad_interrupt>
      4a:	00 00       	nop
      4c:	0c 94 1c 0e 	jmp	0x1c38	; 0x1c38 <__vector_19>
      50:	0c 94 cf 0f 	jmp	0x1f9e	; 0x1f9e <__vector_20>
      54:	3a c0       	rjmp	.+116    	; 0xca <__bad_interrupt>
      56:	00 00       	nop
      58:	0c 94 2a 10 	jmp	0x2054	; 0x2054 <__vector_22>
      5c:	36 c0       	rjmp	.+108    	; 0xca <__bad_interrupt>
      5e:	00 00       	nop
      60:	34 c0       	rjmp	.+104    	; 0xca <__bad_interrupt>
      62:	00 00       	nop
      64:	32 c0       	rjmp	.+100    	; 0xca <__bad_interrupt>
      66:	00 00       	nop
      68:	30 c0       	rjmp	.+96     	; 0xca <__bad_interrupt>
      6a:	00 00       	nop
      6c:	2e c0       	rjmp	.+92     	; 0xca <__bad_interrupt>
      6e:	00 00       	nop
      70:	2c c0       	rjmp	.+88     	; 0xca <__bad_interrupt>
      72:	00 00       	nop
      74:	2a c0       	rjmp	.+84     	; 0xca <__bad_interrupt>
      76:	00 00       	nop
      78:	28 c0       	rjmp	.+80     	; 0xca <__bad_interrupt>
      7a:	00 00       	nop
      7c:	26 c0       	rjmp	.+76     	; 0xca <__bad_interrupt>
      7e:	00 00       	nop
      80:	25 c0       	rjmp	.+74     	; 0xcc <__vector_32>
      82:	00 00       	nop
      84:	22 c0       	rjmp	.+68     	; 0xca <__bad_interrupt>
      86:	00 00       	nop
      88:	20 c0       	rjmp	.+64     	; 0xca <__bad_interrupt>
	...

0000008c <__ctors_end>:
      8c:	11 24       	eor	r1, r1
      8e:	1f be       	out	0x3f, r1	; 63
      90:	cf ef       	ldi	r28, 0xFF	; 255
      92:	d0 e4       	ldi	r29, 0x40	; 64
      94:	de bf       	out	0x3e, r29	; 62
      96:	cd bf       	out	0x3d, r28	; 61

00000098 <__do_copy_data>:
      98:	11 e0       	ldi	r17, 0x01	; 1
      9a:	a0 e0       	ldi	r26, 0x00	; 0
      9c:	b1 e0       	ldi	r27, 0x01	; 1
      9e:	e4 e3       	ldi	r30, 0x34	; 52
      a0:	f5 e2       	ldi	r31, 0x25	; 37
      a2:	00 e0       	ldi	r16, 0x00	; 0
      a4:	0b bf       	out	0x3b, r16	; 59
      a6:	02 c0       	rjmp	.+4      	; 0xac <__do_copy_data+0x14>
      a8:	07 90       	elpm	r0, Z+
      aa:	0d 92       	st	X+, r0
      ac:	ae 3f       	cpi	r26, 0xFE	; 254
      ae:	b1 07       	cpc	r27, r17
      b0:	d9 f7       	brne	.-10     	; 0xa8 <__do_copy_data+0x10>

000000b2 <__do_clear_bss>:
      b2:	23 e0       	ldi	r18, 0x03	; 3
      b4:	ae ef       	ldi	r26, 0xFE	; 254
      b6:	b1 e0       	ldi	r27, 0x01	; 1
      b8:	01 c0       	rjmp	.+2      	; 0xbc <.do_clear_bss_start>

000000ba <.do_clear_bss_loop>:
      ba:	1d 92       	st	X+, r1

000000bc <.do_clear_bss_start>:
      bc:	a6 32       	cpi	r26, 0x26	; 38
      be:	b2 07       	cpc	r27, r18
      c0:	e1 f7       	brne	.-8      	; 0xba <.do_clear_bss_loop>
      c2:	0e 94 ad 09 	call	0x135a	; 0x135a <main>
      c6:	0c 94 98 12 	jmp	0x2530	; 0x2530 <_exit>

000000ca <__bad_interrupt>:
      ca:	9a cf       	rjmp	.-204    	; 0x0 <__vectors>

000000cc <__vector_32>:
#include <stdint.h>
#include <string.h>


ISR(TIMER3_COMPA_vect)
{
      cc:	1f 92       	push	r1
      ce:	0f 92       	push	r0
      d0:	0f b6       	in	r0, 0x3f	; 63
      d2:	0f 92       	push	r0
      d4:	11 24       	eor	r1, r1
      d6:	8f 93       	push	r24
    step=step+1;
      d8:	80 91 19 03 	lds	r24, 0x0319
      dc:	8f 5f       	subi	r24, 0xFF	; 255
      de:	80 93 19 03 	sts	0x0319, r24
}
      e2:	8f 91       	pop	r24
      e4:	0f 90       	pop	r0
      e6:	0f be       	out	0x3f, r0	; 63
      e8:	0f 90       	pop	r0
      ea:	1f 90       	pop	r1
      ec:	18 95       	reti

000000ee <countInit>:


void countInit(int req_delay)
{
    OCR3A =  req_delay;
      ee:	90 93 99 00 	sts	0x0099, r25
      f2:	80 93 98 00 	sts	0x0098, r24
	TCNT3 = 0;
      f6:	10 92 95 00 	sts	0x0095, r1
      fa:	10 92 94 00 	sts	0x0094, r1
    TIMSK3 = (1<<OCIE3A);
      fe:	82 e0       	ldi	r24, 0x02	; 2
     100:	80 93 71 00 	sts	0x0071, r24
	TCCR3B = (1<<WGM32)|(1<<CS32)|(1<<CS30); // CTC-mode 4 to compare with OCR1A, 
     104:	8d e0       	ldi	r24, 0x0D	; 13
     106:	80 93 91 00 	sts	0x0091, r24
	
    
	step = 0;
     10a:	10 92 19 03 	sts	0x0319, r1
     10e:	08 95       	ret

00000110 <resetCounter>:
	
}

void resetCounter(void)
{
	 TCCR3B = (0<<CS32)|(0<<CS30);
     110:	10 92 91 00 	sts	0x0091, r1
     114:	08 95       	ret

00000116 <FLC_speed>:
// FLC OBSTACLE AVOIDER
//////////////////////////////////////////////////////////////////////////////////


void FLC_speed(int currentServo, int midSonicRange, int currentEsc)
{
     116:	2f 92       	push	r2
     118:	3f 92       	push	r3
     11a:	4f 92       	push	r4
     11c:	5f 92       	push	r5
     11e:	6f 92       	push	r6
     120:	7f 92       	push	r7
     122:	8f 92       	push	r8
     124:	9f 92       	push	r9
     126:	af 92       	push	r10
     128:	bf 92       	push	r11
     12a:	cf 92       	push	r12
     12c:	df 92       	push	r13
     12e:	ef 92       	push	r14
     130:	ff 92       	push	r15
     132:	0f 93       	push	r16
     134:	1f 93       	push	r17
     136:	cf 93       	push	r28
     138:	df 93       	push	r29
     13a:	cd b7       	in	r28, 0x3d	; 61
     13c:	de b7       	in	r29, 0x3e	; 62
     13e:	ca 5b       	subi	r28, 0xBA	; 186
     140:	d2 40       	sbci	r29, 0x02	; 2
     142:	0f b6       	in	r0, 0x3f	; 63
     144:	f8 94       	cli
     146:	de bf       	out	0x3e, r29	; 62
     148:	0f be       	out	0x3f, r0	; 63
     14a:	cd bf       	out	0x3d, r28	; 61
     14c:	7b 01       	movw	r14, r22
     14e:	6a 01       	movw	r12, r20
	
	int fullBatteryAdjust = 10;
	
	// Inputs
	struct io_type distance; strcpy(distance.name, "distance");
     150:	29 e0       	ldi	r18, 0x09	; 9
     152:	e0 e0       	ldi	r30, 0x00	; 0
     154:	f1 e0       	ldi	r31, 0x01	; 1
     156:	de 01       	movw	r26, r28
     158:	11 96       	adiw	r26, 0x01	; 1
     15a:	01 90       	ld	r0, Z+
     15c:	0d 92       	st	X+, r0
     15e:	2a 95       	dec	r18
     160:	e1 f7       	brne	.-8      	; 0x15a <FLC_speed+0x44>
	struct io_type steering; strcpy(steering.name, "steering");
     162:	29 e0       	ldi	r18, 0x09	; 9
     164:	e9 e0       	ldi	r30, 0x09	; 9
     166:	f1 e0       	ldi	r31, 0x01	; 1
     168:	de 01       	movw	r26, r28
     16a:	51 96       	adiw	r26, 0x11	; 17
     16c:	01 90       	ld	r0, Z+
     16e:	0d 92       	st	X+, r0
     170:	2a 95       	dec	r18
     172:	e1 f7       	brne	.-8      	; 0x16c <FLC_speed+0x56>
	struct io_type esc; strcpy(esc.name, "esc");
     174:	05 e6       	ldi	r16, 0x65	; 101
     176:	13 e7       	ldi	r17, 0x73	; 115
     178:	23 e6       	ldi	r18, 0x63	; 99
     17a:	30 e0       	ldi	r19, 0x00	; 0
     17c:	09 a3       	std	Y+33, r16	; 0x21
     17e:	1a a3       	std	Y+34, r17	; 0x22
     180:	2b a3       	std	Y+35, r18	; 0x23
     182:	3c a3       	std	Y+36, r19	; 0x24

	// Output
	struct io_type speed; strcpy(speed.name, "speed");
     184:	26 e0       	ldi	r18, 0x06	; 6
     186:	e2 e1       	ldi	r30, 0x12	; 18
     188:	f1 e0       	ldi	r31, 0x01	; 1
     18a:	de 01       	movw	r26, r28
     18c:	d1 96       	adiw	r26, 0x31	; 49
     18e:	01 90       	ld	r0, Z+
     190:	0d 92       	st	X+, r0
     192:	2a 95       	dec	r18
     194:	e1 f7       	brne	.-8      	; 0x18e <FLC_speed+0x78>


	// Variable assigned its reference value
	if (currentServo<=MAXLEFT) {
     196:	87 3e       	cpi	r24, 0xE7	; 231
     198:	07 e0       	ldi	r16, 0x07	; 7
     19a:	90 07       	cpc	r25, r16
     19c:	2c f4       	brge	.+10     	; 0x1a8 <FLC_speed+0x92>
		steering.value = 202;
     19e:	8a ec       	ldi	r24, 0xCA	; 202
     1a0:	90 e0       	ldi	r25, 0x00	; 0
     1a2:	9c 8f       	std	Y+28, r25	; 0x1c
     1a4:	8b 8f       	std	Y+27, r24	; 0x1b
     1a6:	0f c0       	rjmp	.+30     	; 0x1c6 <FLC_speed+0xb0>
	}
	else if (currentServo>=MAXRIGHT)
     1a8:	84 3e       	cpi	r24, 0xE4	; 228
     1aa:	1c e0       	ldi	r17, 0x0C	; 12
     1ac:	91 07       	cpc	r25, r17
     1ae:	2c f0       	brlt	.+10     	; 0x1ba <FLC_speed+0xa4>
	{
		steering.value = 330;
     1b0:	8a e4       	ldi	r24, 0x4A	; 74
     1b2:	91 e0       	ldi	r25, 0x01	; 1
     1b4:	9c 8f       	std	Y+28, r25	; 0x1c
     1b6:	8b 8f       	std	Y+27, r24	; 0x1b
     1b8:	06 c0       	rjmp	.+12     	; 0x1c6 <FLC_speed+0xb0>
	}
	else
	{
		steering.value = (int) currentServo / 10;
     1ba:	6a e0       	ldi	r22, 0x0A	; 10
     1bc:	70 e0       	ldi	r23, 0x00	; 0
     1be:	0e 94 6a 12 	call	0x24d4	; 0x24d4 <__divmodhi4>
     1c2:	7c 8f       	std	Y+28, r23	; 0x1c
     1c4:	6b 8f       	std	Y+27, r22	; 0x1b
	}
	
	// Variable assigned its reference value
	if (currentEsc<2780)
     1c6:	2c ed       	ldi	r18, 0xDC	; 220
     1c8:	c2 16       	cp	r12, r18
     1ca:	2a e0       	ldi	r18, 0x0A	; 10
     1cc:	d2 06       	cpc	r13, r18
     1ce:	2c f4       	brge	.+10     	; 0x1da <FLC_speed+0xc4>
	{
		esc.value = 2780;
     1d0:	8c ed       	ldi	r24, 0xDC	; 220
     1d2:	9a e0       	ldi	r25, 0x0A	; 10
     1d4:	9c a7       	std	Y+44, r25	; 0x2c
     1d6:	8b a7       	std	Y+43, r24	; 0x2b
     1d8:	0c c0       	rjmp	.+24     	; 0x1f2 <FLC_speed+0xdc>
	}
	else if (currentEsc>MAXESC)
     1da:	43 e2       	ldi	r20, 0x23	; 35
     1dc:	c4 16       	cp	r12, r20
     1de:	4b e0       	ldi	r20, 0x0B	; 11
     1e0:	d4 06       	cpc	r13, r20
     1e2:	2c f0       	brlt	.+10     	; 0x1ee <FLC_speed+0xd8>
	{
		esc.value = MAXESC;
     1e4:	82 e2       	ldi	r24, 0x22	; 34
     1e6:	9b e0       	ldi	r25, 0x0B	; 11
     1e8:	9c a7       	std	Y+44, r25	; 0x2c
     1ea:	8b a7       	std	Y+43, r24	; 0x2b
     1ec:	02 c0       	rjmp	.+4      	; 0x1f2 <FLC_speed+0xdc>
	}
	else
	{
		esc.value = currentEsc;
     1ee:	dc a6       	std	Y+44, r13	; 0x2c
     1f0:	cb a6       	std	Y+43, r12	; 0x2b
	}

	// Variable assigned its reference value
	if(midSonicRange < MIN_DISTANCE)
     1f2:	ff 20       	and	r15, r15
     1f4:	1c f4       	brge	.+6      	; 0x1fc <FLC_speed+0xe6>
	{
		distance.value = MIN_DISTANCE;
     1f6:	1c 86       	std	Y+12, r1	; 0x0c
     1f8:	1b 86       	std	Y+11, r1	; 0x0b
     1fa:	0b c0       	rjmp	.+22     	; 0x212 <FLC_speed+0xfc>
	}
	else if (midSonicRange > MAX_DISTANCE)
     1fc:	6c e4       	ldi	r22, 0x4C	; 76
     1fe:	e6 16       	cp	r14, r22
     200:	f1 04       	cpc	r15, r1
     202:	2c f0       	brlt	.+10     	; 0x20e <FLC_speed+0xf8>
	{
		distance.value = MAX_DISTANCE;
     204:	8b e4       	ldi	r24, 0x4B	; 75
     206:	90 e0       	ldi	r25, 0x00	; 0
     208:	9c 87       	std	Y+12, r25	; 0x0c
     20a:	8b 87       	std	Y+11, r24	; 0x0b
     20c:	02 c0       	rjmp	.+4      	; 0x212 <FLC_speed+0xfc>
	}
	else
	{
		distance.value = midSonicRange;
     20e:	fc 86       	std	Y+12, r15	; 0x0c
     210:	eb 86       	std	Y+11, r14	; 0x0b
	//////////////////////////////////////////////////////////////////////////////


	// Set MFs
	struct mf_type maxLeft;
	MATLAB_MF(&maxLeft, "maxLeft", 201, 202, 205, 230);
     212:	0f 2e       	mov	r0, r31
     214:	f6 ee       	ldi	r31, 0xE6	; 230
     216:	ef 2e       	mov	r14, r31
     218:	f1 2c       	mov	r15, r1
     21a:	f0 2d       	mov	r31, r0
     21c:	0d ec       	ldi	r16, 0xCD	; 205
     21e:	10 e0       	ldi	r17, 0x00	; 0
     220:	2a ec       	ldi	r18, 0xCA	; 202
     222:	30 e0       	ldi	r19, 0x00	; 0
     224:	49 ec       	ldi	r20, 0xC9	; 201
     226:	50 e0       	ldi	r21, 0x00	; 0
     228:	68 e1       	ldi	r22, 0x18	; 24
     22a:	71 e0       	ldi	r23, 0x01	; 1
     22c:	ce 01       	movw	r24, r28
     22e:	8f 5b       	subi	r24, 0xBF	; 191
     230:	9f 4f       	sbci	r25, 0xFF	; 255
     232:	8a d6       	rcall	.+3348   	; 0xf48 <MATLAB_MF>
	struct mf_type left;
	MATLAB_MF(&left, "left", 205, 230, 237, 262);
     234:	0f 2e       	mov	r0, r31
     236:	f6 e0       	ldi	r31, 0x06	; 6
     238:	ef 2e       	mov	r14, r31
     23a:	ff 24       	eor	r15, r15
     23c:	f3 94       	inc	r15
     23e:	f0 2d       	mov	r31, r0
     240:	0d ee       	ldi	r16, 0xED	; 237
     242:	10 e0       	ldi	r17, 0x00	; 0
     244:	26 ee       	ldi	r18, 0xE6	; 230
     246:	30 e0       	ldi	r19, 0x00	; 0
     248:	4d ec       	ldi	r20, 0xCD	; 205
     24a:	50 e0       	ldi	r21, 0x00	; 0
     24c:	60 e2       	ldi	r22, 0x20	; 32
     24e:	71 e0       	ldi	r23, 0x01	; 1
     250:	ce 01       	movw	r24, r28
     252:	89 5a       	subi	r24, 0xA9	; 169
     254:	9f 4f       	sbci	r25, 0xFF	; 255
     256:	78 d6       	rcall	.+3312   	; 0xf48 <MATLAB_MF>
	struct mf_type straight;
	MATLAB_MF(&straight, "straight", 236, 266, 266, 296);
     258:	0f 2e       	mov	r0, r31
     25a:	f8 e2       	ldi	r31, 0x28	; 40
     25c:	ef 2e       	mov	r14, r31
     25e:	ff 24       	eor	r15, r15
     260:	f3 94       	inc	r15
     262:	f0 2d       	mov	r31, r0
     264:	0a e0       	ldi	r16, 0x0A	; 10
     266:	11 e0       	ldi	r17, 0x01	; 1
     268:	2a e0       	ldi	r18, 0x0A	; 10
     26a:	31 e0       	ldi	r19, 0x01	; 1
     26c:	4c ee       	ldi	r20, 0xEC	; 236
     26e:	50 e0       	ldi	r21, 0x00	; 0
     270:	65 e2       	ldi	r22, 0x25	; 37
     272:	71 e0       	ldi	r23, 0x01	; 1
     274:	ce 01       	movw	r24, r28
     276:	83 59       	subi	r24, 0x93	; 147
     278:	9f 4f       	sbci	r25, 0xFF	; 255
     27a:	66 d6       	rcall	.+3276   	; 0xf48 <MATLAB_MF>
	struct mf_type right;
	MATLAB_MF(&right, "right", 267, 295, 302, 325);
     27c:	0f 2e       	mov	r0, r31
     27e:	f5 e4       	ldi	r31, 0x45	; 69
     280:	ef 2e       	mov	r14, r31
     282:	ff 24       	eor	r15, r15
     284:	f3 94       	inc	r15
     286:	f0 2d       	mov	r31, r0
     288:	0e e2       	ldi	r16, 0x2E	; 46
     28a:	11 e0       	ldi	r17, 0x01	; 1
     28c:	27 e2       	ldi	r18, 0x27	; 39
     28e:	31 e0       	ldi	r19, 0x01	; 1
     290:	4b e0       	ldi	r20, 0x0B	; 11
     292:	51 e0       	ldi	r21, 0x01	; 1
     294:	6e e2       	ldi	r22, 0x2E	; 46
     296:	71 e0       	ldi	r23, 0x01	; 1
     298:	ce 01       	movw	r24, r28
     29a:	8d 57       	subi	r24, 0x7D	; 125
     29c:	9f 4f       	sbci	r25, 0xFF	; 255
     29e:	54 d6       	rcall	.+3240   	; 0xf48 <MATLAB_MF>
	struct mf_type maxRight;
	MATLAB_MF(&maxRight, "maxRight", 301, 325, 330, 331);
     2a0:	0f 2e       	mov	r0, r31
     2a2:	fb e4       	ldi	r31, 0x4B	; 75
     2a4:	ef 2e       	mov	r14, r31
     2a6:	ff 24       	eor	r15, r15
     2a8:	f3 94       	inc	r15
     2aa:	f0 2d       	mov	r31, r0
     2ac:	0a e4       	ldi	r16, 0x4A	; 74
     2ae:	11 e0       	ldi	r17, 0x01	; 1
     2b0:	25 e4       	ldi	r18, 0x45	; 69
     2b2:	31 e0       	ldi	r19, 0x01	; 1
     2b4:	4d e2       	ldi	r20, 0x2D	; 45
     2b6:	51 e0       	ldi	r21, 0x01	; 1
     2b8:	64 e3       	ldi	r22, 0x34	; 52
     2ba:	71 e0       	ldi	r23, 0x01	; 1
     2bc:	ce 01       	movw	r24, r28
     2be:	87 56       	subi	r24, 0x67	; 103
     2c0:	9f 4f       	sbci	r25, 0xFF	; 255
     2c2:	42 d6       	rcall	.+3204   	; 0xf48 <MATLAB_MF>
	

	// Linked list for MFs
	steering.membership_functions = &maxLeft;
     2c4:	81 e4       	ldi	r24, 0x41	; 65
     2c6:	90 e0       	ldi	r25, 0x00	; 0
     2c8:	8c 0f       	add	r24, r28
     2ca:	9d 1f       	adc	r25, r29
     2cc:	9e 8f       	std	Y+30, r25	; 0x1e
     2ce:	8d 8f       	std	Y+29, r24	; 0x1d
	maxLeft.next = &left;
     2d0:	a7 e5       	ldi	r26, 0x57	; 87
     2d2:	b0 e0       	ldi	r27, 0x00	; 0
     2d4:	ac 0f       	add	r26, r28
     2d6:	bd 1f       	adc	r27, r29
     2d8:	67 96       	adiw	r28, 0x17	; 23
     2da:	bf af       	std	Y+63, r27	; 0x3f
     2dc:	ae af       	std	Y+62, r26	; 0x3e
     2de:	67 97       	sbiw	r28, 0x17	; 23
	left.next = &straight;
     2e0:	ed e6       	ldi	r30, 0x6D	; 109
     2e2:	f0 e0       	ldi	r31, 0x00	; 0
     2e4:	ec 0f       	add	r30, r28
     2e6:	fd 1f       	adc	r31, r29
     2e8:	ad 96       	adiw	r28, 0x2d	; 45
     2ea:	ff af       	std	Y+63, r31	; 0x3f
     2ec:	ee af       	std	Y+62, r30	; 0x3e
     2ee:	ad 97       	sbiw	r28, 0x2d	; 45
	straight.next = &right;
     2f0:	03 e8       	ldi	r16, 0x83	; 131
     2f2:	10 e0       	ldi	r17, 0x00	; 0
     2f4:	0c 0f       	add	r16, r28
     2f6:	1d 1f       	adc	r17, r29
     2f8:	cf 57       	subi	r28, 0x7F	; 127
     2fa:	df 4f       	sbci	r29, 0xFF	; 255
     2fc:	19 83       	std	Y+1, r17	; 0x01
     2fe:	08 83       	st	Y, r16
     300:	c1 58       	subi	r28, 0x81	; 129
     302:	d0 40       	sbci	r29, 0x00	; 0
	right.next = & maxRight;
     304:	89 e9       	ldi	r24, 0x99	; 153
     306:	90 e0       	ldi	r25, 0x00	; 0
     308:	8c 0f       	add	r24, r28
     30a:	9d 1f       	adc	r25, r29
     30c:	c9 56       	subi	r28, 0x69	; 105
     30e:	df 4f       	sbci	r29, 0xFF	; 255
     310:	99 83       	std	Y+1, r25	; 0x01
     312:	88 83       	st	Y, r24
     314:	c7 59       	subi	r28, 0x97	; 151
     316:	d0 40       	sbci	r29, 0x00	; 0
	maxRight.next = NULL;
     318:	c3 55       	subi	r28, 0x53	; 83
     31a:	df 4f       	sbci	r29, 0xFF	; 255
     31c:	19 82       	std	Y+1, r1	; 0x01
     31e:	18 82       	st	Y, r1
     320:	cd 5a       	subi	r28, 0xAD	; 173
     322:	d0 40       	sbci	r29, 0x00	; 0
	// DECLARATION OF DISTANCE INPUT VARIABLE
	//////////////////////////////////////////////////////////////////////////////

	// Set MFs
	struct mf_type stopDist;
	MATLAB_MF(&stopDist, "stopDist", MIN_DISTANCE-1, MIN_DISTANCE, 10, 20);
     324:	0f 2e       	mov	r0, r31
     326:	f4 e1       	ldi	r31, 0x14	; 20
     328:	ef 2e       	mov	r14, r31
     32a:	f1 2c       	mov	r15, r1
     32c:	f0 2d       	mov	r31, r0
     32e:	0a e0       	ldi	r16, 0x0A	; 10
     330:	10 e0       	ldi	r17, 0x00	; 0
     332:	20 e0       	ldi	r18, 0x00	; 0
     334:	30 e0       	ldi	r19, 0x00	; 0
     336:	4f ef       	ldi	r20, 0xFF	; 255
     338:	5f ef       	ldi	r21, 0xFF	; 255
     33a:	6d e3       	ldi	r22, 0x3D	; 61
     33c:	71 e0       	ldi	r23, 0x01	; 1
     33e:	46 96       	adiw	r24, 0x16	; 22
     340:	03 d6       	rcall	.+3078   	; 0xf48 <MATLAB_MF>
	struct mf_type close;
	MATLAB_MF(&close, "close", 10, 30, 30, 50);
     342:	5e 01       	movw	r10, r28
     344:	95 ec       	ldi	r25, 0xC5	; 197
     346:	a9 0e       	add	r10, r25
     348:	b1 1c       	adc	r11, r1
     34a:	0f 2e       	mov	r0, r31
     34c:	f2 e3       	ldi	r31, 0x32	; 50
     34e:	ef 2e       	mov	r14, r31
     350:	f1 2c       	mov	r15, r1
     352:	f0 2d       	mov	r31, r0
     354:	0e e1       	ldi	r16, 0x1E	; 30
     356:	10 e0       	ldi	r17, 0x00	; 0
     358:	2e e1       	ldi	r18, 0x1E	; 30
     35a:	30 e0       	ldi	r19, 0x00	; 0
     35c:	4a e0       	ldi	r20, 0x0A	; 10
     35e:	50 e0       	ldi	r21, 0x00	; 0
     360:	66 e4       	ldi	r22, 0x46	; 70
     362:	71 e0       	ldi	r23, 0x01	; 1
     364:	c5 01       	movw	r24, r10
     366:	f0 d5       	rcall	.+3040   	; 0xf48 <MATLAB_MF>
	struct mf_type distant;
	MATLAB_MF(&distant, "distant", 30, 50, 50, 70);
     368:	0f 2e       	mov	r0, r31
     36a:	f6 e4       	ldi	r31, 0x46	; 70
     36c:	ef 2e       	mov	r14, r31
     36e:	f1 2c       	mov	r15, r1
     370:	f0 2d       	mov	r31, r0
     372:	02 e3       	ldi	r16, 0x32	; 50
     374:	10 e0       	ldi	r17, 0x00	; 0
     376:	22 e3       	ldi	r18, 0x32	; 50
     378:	30 e0       	ldi	r19, 0x00	; 0
     37a:	4e e1       	ldi	r20, 0x1E	; 30
     37c:	50 e0       	ldi	r21, 0x00	; 0
     37e:	6c e4       	ldi	r22, 0x4C	; 76
     380:	71 e0       	ldi	r23, 0x01	; 1
     382:	ce 01       	movw	r24, r28
     384:	85 52       	subi	r24, 0x25	; 37
     386:	9f 4f       	sbci	r25, 0xFF	; 255
     388:	df d5       	rcall	.+3006   	; 0xf48 <MATLAB_MF>
	struct mf_type faar;
	MATLAB_MF(&faar, "faar", 50, 70, 75, MAX_DISTANCE+1);
     38a:	0f 2e       	mov	r0, r31
     38c:	fc e4       	ldi	r31, 0x4C	; 76
     38e:	ef 2e       	mov	r14, r31
     390:	f1 2c       	mov	r15, r1
     392:	f0 2d       	mov	r31, r0
     394:	0b e4       	ldi	r16, 0x4B	; 75
     396:	10 e0       	ldi	r17, 0x00	; 0
     398:	26 e4       	ldi	r18, 0x46	; 70
     39a:	30 e0       	ldi	r19, 0x00	; 0
     39c:	42 e3       	ldi	r20, 0x32	; 50
     39e:	50 e0       	ldi	r21, 0x00	; 0
     3a0:	64 e5       	ldi	r22, 0x54	; 84
     3a2:	71 e0       	ldi	r23, 0x01	; 1
     3a4:	ce 01       	movw	r24, r28
     3a6:	8f 50       	subi	r24, 0x0F	; 15
     3a8:	9f 4f       	sbci	r25, 0xFF	; 255
     3aa:	ce d5       	rcall	.+2972   	; 0xf48 <MATLAB_MF>


	// Linked list for MFs
	distance.membership_functions = &stopDist;
     3ac:	af ea       	ldi	r26, 0xAF	; 175
     3ae:	b0 e0       	ldi	r27, 0x00	; 0
     3b0:	ac 0f       	add	r26, r28
     3b2:	bd 1f       	adc	r27, r29
     3b4:	be 87       	std	Y+14, r27	; 0x0e
     3b6:	ad 87       	std	Y+13, r26	; 0x0d
	stopDist.next = &close;
     3b8:	cd 53       	subi	r28, 0x3D	; 61
     3ba:	df 4f       	sbci	r29, 0xFF	; 255
     3bc:	b9 82       	std	Y+1, r11	; 0x01
     3be:	a8 82       	st	Y, r10
     3c0:	c3 5c       	subi	r28, 0xC3	; 195
     3c2:	d0 40       	sbci	r29, 0x00	; 0
	close.next = &distant;
     3c4:	0b ed       	ldi	r16, 0xDB	; 219
     3c6:	10 e0       	ldi	r17, 0x00	; 0
     3c8:	0c 0f       	add	r16, r28
     3ca:	1d 1f       	adc	r17, r29
     3cc:	f5 01       	movw	r30, r10
     3ce:	15 8b       	std	Z+21, r17	; 0x15
     3d0:	04 8b       	std	Z+20, r16	; 0x14
	distant.next = &faar;
     3d2:	81 ef       	ldi	r24, 0xF1	; 241
     3d4:	90 e0       	ldi	r25, 0x00	; 0
     3d6:	8c 0f       	add	r24, r28
     3d8:	9d 1f       	adc	r25, r29
     3da:	c1 51       	subi	r28, 0x11	; 17
     3dc:	df 4f       	sbci	r29, 0xFF	; 255
     3de:	99 83       	std	Y+1, r25	; 0x01
     3e0:	88 83       	st	Y, r24
     3e2:	cf 5e       	subi	r28, 0xEF	; 239
     3e4:	d0 40       	sbci	r29, 0x00	; 0
	faar.next = NULL;
     3e6:	cb 5f       	subi	r28, 0xFB	; 251
     3e8:	de 4f       	sbci	r29, 0xFE	; 254
     3ea:	19 82       	std	Y+1, r1	; 0x01
     3ec:	18 82       	st	Y, r1
     3ee:	c5 50       	subi	r28, 0x05	; 5
     3f0:	d1 40       	sbci	r29, 0x01	; 1
	//////////////////////////////////////////////////////////////////////////////


	// Set MFs
	struct mf_type neutral;
	MATLAB_MF(&neutral, "neutral", 2779, 2780, 2800, 2830);
     3f2:	0f 2e       	mov	r0, r31
     3f4:	fe e0       	ldi	r31, 0x0E	; 14
     3f6:	ef 2e       	mov	r14, r31
     3f8:	fb e0       	ldi	r31, 0x0B	; 11
     3fa:	ff 2e       	mov	r15, r31
     3fc:	f0 2d       	mov	r31, r0
     3fe:	00 ef       	ldi	r16, 0xF0	; 240
     400:	1a e0       	ldi	r17, 0x0A	; 10
     402:	2c ed       	ldi	r18, 0xDC	; 220
     404:	3a e0       	ldi	r19, 0x0A	; 10
     406:	4b ed       	ldi	r20, 0xDB	; 219
     408:	5a e0       	ldi	r21, 0x0A	; 10
     40a:	69 e5       	ldi	r22, 0x59	; 89
     40c:	71 e0       	ldi	r23, 0x01	; 1
     40e:	46 96       	adiw	r24, 0x16	; 22
     410:	9b d5       	rcall	.+2870   	; 0xf48 <MATLAB_MF>
	struct mf_type low;
	MATLAB_MF(&low, "low", 2825, 2835, 2835, 2845);
     412:	0f 2e       	mov	r0, r31
     414:	fd e1       	ldi	r31, 0x1D	; 29
     416:	ef 2e       	mov	r14, r31
     418:	fb e0       	ldi	r31, 0x0B	; 11
     41a:	ff 2e       	mov	r15, r31
     41c:	f0 2d       	mov	r31, r0
     41e:	03 e1       	ldi	r16, 0x13	; 19
     420:	1b e0       	ldi	r17, 0x0B	; 11
     422:	23 e1       	ldi	r18, 0x13	; 19
     424:	3b e0       	ldi	r19, 0x0B	; 11
     426:	49 e0       	ldi	r20, 0x09	; 9
     428:	5b e0       	ldi	r21, 0x0B	; 11
     42a:	63 e7       	ldi	r22, 0x73	; 115
     42c:	71 e0       	ldi	r23, 0x01	; 1
     42e:	ce 01       	movw	r24, r28
     430:	83 5e       	subi	r24, 0xE3	; 227
     432:	9e 4f       	sbci	r25, 0xFE	; 254
     434:	89 d5       	rcall	.+2834   	; 0xf48 <MATLAB_MF>
	struct mf_type medium;
	MATLAB_MF(&medium, "medium", 2830, 2840, 2840, 2850);
     436:	0f 2e       	mov	r0, r31
     438:	f2 e2       	ldi	r31, 0x22	; 34
     43a:	ef 2e       	mov	r14, r31
     43c:	fb e0       	ldi	r31, 0x0B	; 11
     43e:	ff 2e       	mov	r15, r31
     440:	f0 2d       	mov	r31, r0
     442:	08 e1       	ldi	r16, 0x18	; 24
     444:	1b e0       	ldi	r17, 0x0B	; 11
     446:	28 e1       	ldi	r18, 0x18	; 24
     448:	3b e0       	ldi	r19, 0x0B	; 11
     44a:	4e e0       	ldi	r20, 0x0E	; 14
     44c:	5b e0       	ldi	r21, 0x0B	; 11
     44e:	61 e6       	ldi	r22, 0x61	; 97
     450:	71 e0       	ldi	r23, 0x01	; 1
     452:	ce 01       	movw	r24, r28
     454:	8d 5c       	subi	r24, 0xCD	; 205
     456:	9e 4f       	sbci	r25, 0xFE	; 254
     458:	77 d5       	rcall	.+2798   	; 0xf48 <MATLAB_MF>
	struct mf_type high;
	MATLAB_MF(&high, "high", 2835, 2845, 2845, 2855);
     45a:	0f 2e       	mov	r0, r31
     45c:	f7 e2       	ldi	r31, 0x27	; 39
     45e:	ef 2e       	mov	r14, r31
     460:	fb e0       	ldi	r31, 0x0B	; 11
     462:	ff 2e       	mov	r15, r31
     464:	f0 2d       	mov	r31, r0
     466:	0d e1       	ldi	r16, 0x1D	; 29
     468:	1b e0       	ldi	r17, 0x0B	; 11
     46a:	2d e1       	ldi	r18, 0x1D	; 29
     46c:	3b e0       	ldi	r19, 0x0B	; 11
     46e:	43 e1       	ldi	r20, 0x13	; 19
     470:	5b e0       	ldi	r21, 0x0B	; 11
     472:	68 e6       	ldi	r22, 0x68	; 104
     474:	71 e0       	ldi	r23, 0x01	; 1
     476:	ce 01       	movw	r24, r28
     478:	87 5b       	subi	r24, 0xB7	; 183
     47a:	9e 4f       	sbci	r25, 0xFE	; 254
     47c:	65 d5       	rcall	.+2762   	; 0xf48 <MATLAB_MF>

	// Linked list for MFs
	esc.membership_functions = &neutral;
     47e:	a7 e0       	ldi	r26, 0x07	; 7
     480:	b1 e0       	ldi	r27, 0x01	; 1
     482:	ac 0f       	add	r26, r28
     484:	bd 1f       	adc	r27, r29
     486:	be a7       	std	Y+46, r27	; 0x2e
     488:	ad a7       	std	Y+45, r26	; 0x2d
	neutral.next = &low;
     48a:	ed e1       	ldi	r30, 0x1D	; 29
     48c:	f1 e0       	ldi	r31, 0x01	; 1
     48e:	ec 0f       	add	r30, r28
     490:	fd 1f       	adc	r31, r29
     492:	c5 5e       	subi	r28, 0xE5	; 229
     494:	de 4f       	sbci	r29, 0xFE	; 254
     496:	f9 83       	std	Y+1, r31	; 0x01
     498:	e8 83       	st	Y, r30
     49a:	cb 51       	subi	r28, 0x1B	; 27
     49c:	d1 40       	sbci	r29, 0x01	; 1
	low.next = &medium;
     49e:	03 e3       	ldi	r16, 0x33	; 51
     4a0:	11 e0       	ldi	r17, 0x01	; 1
     4a2:	0c 0f       	add	r16, r28
     4a4:	1d 1f       	adc	r17, r29
     4a6:	cf 5c       	subi	r28, 0xCF	; 207
     4a8:	de 4f       	sbci	r29, 0xFE	; 254
     4aa:	19 83       	std	Y+1, r17	; 0x01
     4ac:	08 83       	st	Y, r16
     4ae:	c1 53       	subi	r28, 0x31	; 49
     4b0:	d1 40       	sbci	r29, 0x01	; 1
	medium.next = &high;
     4b2:	89 e4       	ldi	r24, 0x49	; 73
     4b4:	91 e0       	ldi	r25, 0x01	; 1
     4b6:	8c 0f       	add	r24, r28
     4b8:	9d 1f       	adc	r25, r29
     4ba:	c9 5b       	subi	r28, 0xB9	; 185
     4bc:	de 4f       	sbci	r29, 0xFE	; 254
     4be:	99 83       	std	Y+1, r25	; 0x01
     4c0:	88 83       	st	Y, r24
     4c2:	c7 54       	subi	r28, 0x47	; 71
     4c4:	d1 40       	sbci	r29, 0x01	; 1
	high.next = NULL;
     4c6:	c3 5a       	subi	r28, 0xA3	; 163
     4c8:	de 4f       	sbci	r29, 0xFE	; 254
     4ca:	19 82       	std	Y+1, r1	; 0x01
     4cc:	18 82       	st	Y, r1
     4ce:	cd 55       	subi	r28, 0x5D	; 93
     4d0:	d1 40       	sbci	r29, 0x01	; 1


	// SETTING I/O LINKED LISTS
	//////////////////////////////////////////////////////////////////////////////

	System_Inputs = &distance;
     4d2:	a1 e0       	ldi	r26, 0x01	; 1
     4d4:	b0 e0       	ldi	r27, 0x00	; 0
     4d6:	ac 0f       	add	r26, r28
     4d8:	bd 1f       	adc	r27, r29
     4da:	b0 93 1d 03 	sts	0x031D, r27
     4de:	a0 93 1c 03 	sts	0x031C, r26
	distance.next = &steering;
     4e2:	4e 01       	movw	r8, r28
     4e4:	b1 e1       	ldi	r27, 0x11	; 17
     4e6:	8b 0e       	add	r8, r27
     4e8:	91 1c       	adc	r9, r1
     4ea:	98 8a       	std	Y+16, r9	; 0x10
     4ec:	8f 86       	std	Y+15, r8	; 0x0f
	steering.next = &esc;
     4ee:	3e 01       	movw	r6, r28
     4f0:	e1 e2       	ldi	r30, 0x21	; 33
     4f2:	6e 0e       	add	r6, r30
     4f4:	71 1c       	adc	r7, r1
     4f6:	78 a2       	std	Y+32, r7	; 0x20
     4f8:	6f 8e       	std	Y+31, r6	; 0x1f
	esc.next = NULL;
     4fa:	18 aa       	std	Y+48, r1	; 0x30
     4fc:	1f a6       	std	Y+47, r1	; 0x2f

	System_Outputs = &speed;
     4fe:	6e 01       	movw	r12, r28
     500:	f1 e3       	ldi	r31, 0x31	; 49
     502:	cf 0e       	add	r12, r31
     504:	d1 1c       	adc	r13, r1
     506:	d0 92 1b 03 	sts	0x031B, r13
     50a:	c0 92 1a 03 	sts	0x031A, r12
	speed.next = NULL;
     50e:	21 96       	adiw	r28, 0x01	; 1
     510:	1f ae       	std	Y+63, r1	; 0x3f
     512:	1e ae       	std	Y+62, r1	; 0x3e
     514:	21 97       	sbiw	r28, 0x01	; 1
	//////////////////////////////////////////////////////////////////////////////


	// Set MFs
	struct mf_type zero;
	MATLAB_MF(&zero, "zero", 2779-fullBatteryAdjust, 2780-fullBatteryAdjust, 2802-fullBatteryAdjust, 2830-fullBatteryAdjust);
     516:	2e 01       	movw	r4, r28
     518:	01 ea       	ldi	r16, 0xA1	; 161
     51a:	40 1a       	sub	r4, r16
     51c:	0e ef       	ldi	r16, 0xFE	; 254
     51e:	50 0a       	sbc	r5, r16
     520:	0f 2e       	mov	r0, r31
     522:	f4 e0       	ldi	r31, 0x04	; 4
     524:	ef 2e       	mov	r14, r31
     526:	fb e0       	ldi	r31, 0x0B	; 11
     528:	ff 2e       	mov	r15, r31
     52a:	f0 2d       	mov	r31, r0
     52c:	08 ee       	ldi	r16, 0xE8	; 232
     52e:	1a e0       	ldi	r17, 0x0A	; 10
     530:	22 ed       	ldi	r18, 0xD2	; 210
     532:	3a e0       	ldi	r19, 0x0A	; 10
     534:	41 ed       	ldi	r20, 0xD1	; 209
     536:	5a e0       	ldi	r21, 0x0A	; 10
     538:	6d e6       	ldi	r22, 0x6D	; 109
     53a:	71 e0       	ldi	r23, 0x01	; 1
     53c:	c2 01       	movw	r24, r4
     53e:	04 d5       	rcall	.+2568   	; 0xf48 <MATLAB_MF>
	struct mf_type slow;
	MATLAB_MF(&slow, "slow", 2825-fullBatteryAdjust, 2835-fullBatteryAdjust, 2835-fullBatteryAdjust, 2845-fullBatteryAdjust);
     540:	1e 01       	movw	r2, r28
     542:	1b e8       	ldi	r17, 0x8B	; 139
     544:	21 1a       	sub	r2, r17
     546:	1e ef       	ldi	r17, 0xFE	; 254
     548:	31 0a       	sbc	r3, r17
     54a:	0f 2e       	mov	r0, r31
     54c:	f3 e1       	ldi	r31, 0x13	; 19
     54e:	ef 2e       	mov	r14, r31
     550:	fb e0       	ldi	r31, 0x0B	; 11
     552:	ff 2e       	mov	r15, r31
     554:	f0 2d       	mov	r31, r0
     556:	09 e0       	ldi	r16, 0x09	; 9
     558:	1b e0       	ldi	r17, 0x0B	; 11
     55a:	29 e0       	ldi	r18, 0x09	; 9
     55c:	3b e0       	ldi	r19, 0x0B	; 11
     55e:	4f ef       	ldi	r20, 0xFF	; 255
     560:	5a e0       	ldi	r21, 0x0A	; 10
     562:	62 e7       	ldi	r22, 0x72	; 114
     564:	71 e0       	ldi	r23, 0x01	; 1
     566:	c1 01       	movw	r24, r2
     568:	ef d4       	rcall	.+2526   	; 0xf48 <MATLAB_MF>
	struct mf_type average;
	MATLAB_MF(&average, "average", 2828-fullBatteryAdjust, 2838-fullBatteryAdjust, 2838-fullBatteryAdjust, 2848-fullBatteryAdjust);
     56a:	0f 2e       	mov	r0, r31
     56c:	f6 e1       	ldi	r31, 0x16	; 22
     56e:	ef 2e       	mov	r14, r31
     570:	fb e0       	ldi	r31, 0x0B	; 11
     572:	ff 2e       	mov	r15, r31
     574:	f0 2d       	mov	r31, r0
     576:	0c e0       	ldi	r16, 0x0C	; 12
     578:	1b e0       	ldi	r17, 0x0B	; 11
     57a:	2c e0       	ldi	r18, 0x0C	; 12
     57c:	3b e0       	ldi	r19, 0x0B	; 11
     57e:	42 e0       	ldi	r20, 0x02	; 2
     580:	5b e0       	ldi	r21, 0x0B	; 11
     582:	67 e7       	ldi	r22, 0x77	; 119
     584:	71 e0       	ldi	r23, 0x01	; 1
     586:	ce 01       	movw	r24, r28
     588:	85 57       	subi	r24, 0x75	; 117
     58a:	9e 4f       	sbci	r25, 0xFE	; 254
     58c:	dd d4       	rcall	.+2490   	; 0xf48 <MATLAB_MF>
	struct mf_type fast;
	MATLAB_MF(&fast, "fast", 2830-fullBatteryAdjust, 2840-fullBatteryAdjust, 2840-fullBatteryAdjust, 2850-fullBatteryAdjust);
     58e:	0f 2e       	mov	r0, r31
     590:	f8 e1       	ldi	r31, 0x18	; 24
     592:	ef 2e       	mov	r14, r31
     594:	fb e0       	ldi	r31, 0x0B	; 11
     596:	ff 2e       	mov	r15, r31
     598:	f0 2d       	mov	r31, r0
     59a:	0e e0       	ldi	r16, 0x0E	; 14
     59c:	1b e0       	ldi	r17, 0x0B	; 11
     59e:	2e e0       	ldi	r18, 0x0E	; 14
     5a0:	3b e0       	ldi	r19, 0x0B	; 11
     5a2:	44 e0       	ldi	r20, 0x04	; 4
     5a4:	5b e0       	ldi	r21, 0x0B	; 11
     5a6:	6f e7       	ldi	r22, 0x7F	; 127
     5a8:	71 e0       	ldi	r23, 0x01	; 1
     5aa:	ce 01       	movw	r24, r28
     5ac:	8f 55       	subi	r24, 0x5F	; 95
     5ae:	9e 4f       	sbci	r25, 0xFE	; 254
     5b0:	cb d4       	rcall	.+2454   	; 0xf48 <MATLAB_MF>

	// Linked list for MFs
	speed.membership_functions = &zero;
     5b2:	5e ae       	std	Y+62, r5	; 0x3e
     5b4:	4d ae       	std	Y+61, r4	; 0x3d
	zero.next = &slow;
     5b6:	d2 01       	movw	r26, r4
     5b8:	55 96       	adiw	r26, 0x15	; 21
     5ba:	3c 92       	st	X, r3
     5bc:	2e 92       	st	-X, r2
     5be:	54 97       	sbiw	r26, 0x14	; 20
	slow.next = &average;
     5c0:	0b e8       	ldi	r16, 0x8B	; 139
     5c2:	11 e0       	ldi	r17, 0x01	; 1
     5c4:	0c 0f       	add	r16, r28
     5c6:	1d 1f       	adc	r17, r29
     5c8:	f1 01       	movw	r30, r2
     5ca:	15 8b       	std	Z+21, r17	; 0x15
     5cc:	04 8b       	std	Z+20, r16	; 0x14
	average.next = &fast;
     5ce:	81 ea       	ldi	r24, 0xA1	; 161
     5d0:	91 e0       	ldi	r25, 0x01	; 1
     5d2:	8c 0f       	add	r24, r28
     5d4:	9d 1f       	adc	r25, r29
     5d6:	c1 56       	subi	r28, 0x61	; 97
     5d8:	de 4f       	sbci	r29, 0xFE	; 254
     5da:	99 83       	std	Y+1, r25	; 0x01
     5dc:	88 83       	st	Y, r24
     5de:	cf 59       	subi	r28, 0x9F	; 159
     5e0:	d1 40       	sbci	r29, 0x01	; 1
	fast.next = NULL;
     5e2:	cb 54       	subi	r28, 0x4B	; 75
     5e4:	de 4f       	sbci	r29, 0xFE	; 254
     5e6:	19 82       	std	Y+1, r1	; 0x01
     5e8:	18 82       	st	Y, r1
     5ea:	c5 5b       	subi	r28, 0xB5	; 181
     5ec:	d1 40       	sbci	r29, 0x01	; 1


	// SETTING I/O LINKED LISTS
	//////////////////////////////////////////////////////////////////////////////

	System_Inputs = &distance;
     5ee:	a1 e0       	ldi	r26, 0x01	; 1
     5f0:	b0 e0       	ldi	r27, 0x00	; 0
     5f2:	ac 0f       	add	r26, r28
     5f4:	bd 1f       	adc	r27, r29
     5f6:	b0 93 1d 03 	sts	0x031D, r27
     5fa:	a0 93 1c 03 	sts	0x031C, r26
	distance.next = &steering;
     5fe:	98 8a       	std	Y+16, r9	; 0x10
     600:	8f 86       	std	Y+15, r8	; 0x0f
	steering.next = &esc;
     602:	78 a2       	std	Y+32, r7	; 0x20
     604:	6f 8e       	std	Y+31, r6	; 0x1f
	esc.next = NULL;
     606:	18 aa       	std	Y+48, r1	; 0x30
     608:	1f a6       	std	Y+47, r1	; 0x2f

	System_Outputs = &speed;
     60a:	d0 92 1b 03 	sts	0x031B, r13
     60e:	c0 92 1a 03 	sts	0x031A, r12
	speed.next = NULL;
     612:	21 96       	adiw	r28, 0x01	; 1
     614:	1f ae       	std	Y+63, r1	; 0x3f
     616:	1e ae       	std	Y+62, r1	; 0x3e
     618:	21 97       	sbiw	r28, 0x01	; 1


	// DECLARATION OF RULES AND LISTS
	//////////////////////////////////////////////////////////////////////////////

	struct rule_type rule1; Rule_Base = &rule1;
     61a:	be 01       	movw	r22, r28
     61c:	69 54       	subi	r22, 0x49	; 73
     61e:	7e 4f       	sbci	r23, 0xFE	; 254
     620:	70 93 1f 03 	sts	0x031F, r23
     624:	60 93 1e 03 	sts	0x031E, r22
	struct rule_type rule2; rule1.next = &rule2;
     628:	ae 01       	movw	r20, r28
     62a:	43 54       	subi	r20, 0x43	; 67
     62c:	5e 4f       	sbci	r21, 0xFE	; 254
     62e:	fb 01       	movw	r30, r22
     630:	55 83       	std	Z+5, r21	; 0x05
     632:	44 83       	std	Z+4, r20	; 0x04
	struct rule_type rule3; rule2.next = &rule3;
     634:	82 96       	adiw	r24, 0x22	; 34
     636:	da 01       	movw	r26, r20
     638:	15 96       	adiw	r26, 0x05	; 5
     63a:	9c 93       	st	X, r25
     63c:	8e 93       	st	-X, r24
     63e:	14 97       	sbiw	r26, 0x04	; 4
	struct rule_type rule4; rule3.next = &rule4;
     640:	9e 01       	movw	r18, r28
     642:	27 53       	subi	r18, 0x37	; 55
     644:	3e 4f       	sbci	r19, 0xFE	; 254
     646:	fc 01       	movw	r30, r24
     648:	35 83       	std	Z+5, r19	; 0x05
     64a:	24 83       	std	Z+4, r18	; 0x04
	struct rule_type rule5; rule4.next = &rule5; 
     64c:	52 96       	adiw	r26, 0x12	; 18
     64e:	f9 01       	movw	r30, r18
     650:	b5 83       	std	Z+5, r27	; 0x05
     652:	a4 83       	std	Z+4, r26	; 0x04
	struct rule_type rule6; rule5.next = &rule6;
     654:	05 ed       	ldi	r16, 0xD5	; 213
     656:	11 e0       	ldi	r17, 0x01	; 1
     658:	0c 0f       	add	r16, r28
     65a:	1d 1f       	adc	r17, r29
     65c:	15 96       	adiw	r26, 0x05	; 5
     65e:	1c 93       	st	X, r17
     660:	0e 93       	st	-X, r16
     662:	14 97       	sbiw	r26, 0x04	; 4
	struct rule_type rule7; rule6.next = &rule7;
     664:	6e 01       	movw	r12, r28
     666:	15 e2       	ldi	r17, 0x25	; 37
     668:	c1 1a       	sub	r12, r17
     66a:	1e ef       	ldi	r17, 0xFE	; 254
     66c:	d1 0a       	sbc	r13, r17
     66e:	c7 52       	subi	r28, 0x27	; 39
     670:	de 4f       	sbci	r29, 0xFE	; 254
     672:	d9 82       	std	Y+1, r13	; 0x01
     674:	c8 82       	st	Y, r12
     676:	c9 5d       	subi	r28, 0xD9	; 217
     678:	d1 40       	sbci	r29, 0x01	; 1
	struct rule_type rule8; rule7.next = &rule8;
     67a:	4e 01       	movw	r8, r28
     67c:	ef e1       	ldi	r30, 0x1F	; 31
     67e:	8e 1a       	sub	r8, r30
     680:	ee ef       	ldi	r30, 0xFE	; 254
     682:	9e 0a       	sbc	r9, r30
     684:	f6 01       	movw	r30, r12
     686:	95 82       	std	Z+5, r9	; 0x05
     688:	84 82       	std	Z+4, r8	; 0x04
	struct rule_type rule9; rule8.next = &rule9;
     68a:	3e 01       	movw	r6, r28
     68c:	f9 e1       	ldi	r31, 0x19	; 25
     68e:	6f 1a       	sub	r6, r31
     690:	fe ef       	ldi	r31, 0xFE	; 254
     692:	7f 0a       	sbc	r7, r31
     694:	f4 01       	movw	r30, r8
     696:	75 82       	std	Z+5, r7	; 0x05
     698:	64 82       	std	Z+4, r6	; 0x04
	struct rule_type rule10; rule9.next = &rule10;
     69a:	0d ee       	ldi	r16, 0xED	; 237
     69c:	11 e0       	ldi	r17, 0x01	; 1
     69e:	0c 0f       	add	r16, r28
     6a0:	1d 1f       	adc	r17, r29
     6a2:	f3 01       	movw	r30, r6
     6a4:	15 83       	std	Z+5, r17	; 0x05
     6a6:	04 83       	std	Z+4, r16	; 0x04
	struct rule_type rule11; rule10.next = &rule11;
     6a8:	e3 ef       	ldi	r30, 0xF3	; 243
     6aa:	f1 e0       	ldi	r31, 0x01	; 1
     6ac:	ec 0f       	add	r30, r28
     6ae:	fd 1f       	adc	r31, r29
     6b0:	cf 50       	subi	r28, 0x0F	; 15
     6b2:	de 4f       	sbci	r29, 0xFE	; 254
     6b4:	f9 83       	std	Y+1, r31	; 0x01
     6b6:	e8 83       	st	Y, r30
     6b8:	c1 5f       	subi	r28, 0xF1	; 241
     6ba:	d1 40       	sbci	r29, 0x01	; 1
	struct rule_type rule12; rule11.next = &rule12;
     6bc:	09 ef       	ldi	r16, 0xF9	; 249
     6be:	11 e0       	ldi	r17, 0x01	; 1
     6c0:	0c 0f       	add	r16, r28
     6c2:	1d 1f       	adc	r17, r29
     6c4:	c9 50       	subi	r28, 0x09	; 9
     6c6:	de 4f       	sbci	r29, 0xFE	; 254
     6c8:	19 83       	std	Y+1, r17	; 0x01
     6ca:	08 83       	st	Y, r16
     6cc:	c7 5f       	subi	r28, 0xF7	; 247
     6ce:	d1 40       	sbci	r29, 0x01	; 1
	struct rule_type rule13; rule12.next = &rule13;
     6d0:	ef ef       	ldi	r30, 0xFF	; 255
     6d2:	f1 e0       	ldi	r31, 0x01	; 1
     6d4:	ec 0f       	add	r30, r28
     6d6:	fd 1f       	adc	r31, r29
     6d8:	c3 50       	subi	r28, 0x03	; 3
     6da:	de 4f       	sbci	r29, 0xFE	; 254
     6dc:	f9 83       	std	Y+1, r31	; 0x01
     6de:	e8 83       	st	Y, r30
     6e0:	cd 5f       	subi	r28, 0xFD	; 253
     6e2:	d1 40       	sbci	r29, 0x01	; 1
	struct rule_type rule14; rule13.next = &rule14;
     6e4:	05 e0       	ldi	r16, 0x05	; 5
     6e6:	12 e0       	ldi	r17, 0x02	; 2
     6e8:	0c 0f       	add	r16, r28
     6ea:	1d 1f       	adc	r17, r29
     6ec:	cd 5f       	subi	r28, 0xFD	; 253
     6ee:	dd 4f       	sbci	r29, 0xFD	; 253
     6f0:	19 83       	std	Y+1, r17	; 0x01
     6f2:	08 83       	st	Y, r16
     6f4:	c3 50       	subi	r28, 0x03	; 3
     6f6:	d2 40       	sbci	r29, 0x02	; 2
	rule14.next = NULL;
     6f8:	c7 5f       	subi	r28, 0xF7	; 247
     6fa:	dd 4f       	sbci	r29, 0xFD	; 253
     6fc:	19 82       	std	Y+1, r1	; 0x01
     6fe:	18 82       	st	Y, r1
     700:	c9 50       	subi	r28, 0x09	; 9
     702:	d2 40       	sbci	r29, 0x02	; 2
	// RULE SETUP
	//////////////////////////////////////////////////////////////////////////////

	// if distance is stopDist then speed is neutral
	struct rule_element_type if11, then1;
	rule1.if_side = &if11; if11.next = NULL; rule1.then_side = &then1; then1.next = NULL;
     704:	7e 01       	movw	r14, r28
     706:	15 ef       	ldi	r17, 0xF5	; 245
     708:	e1 1a       	sub	r14, r17
     70a:	1d ef       	ldi	r17, 0xFD	; 253
     70c:	f1 0a       	sbc	r15, r17
     70e:	fb 01       	movw	r30, r22
     710:	f1 82       	std	Z+1, r15	; 0x01
     712:	e0 82       	st	Z, r14
     714:	f7 01       	movw	r30, r14
     716:	13 82       	std	Z+3, r1	; 0x03
     718:	12 82       	std	Z+2, r1	; 0x02
     71a:	8e 01       	movw	r16, r28
     71c:	01 5f       	subi	r16, 0xF1	; 241
     71e:	1d 4f       	sbci	r17, 0xFD	; 253
     720:	fb 01       	movw	r30, r22
     722:	13 83       	std	Z+3, r17	; 0x03
     724:	02 83       	std	Z+2, r16	; 0x02
     726:	f8 01       	movw	r30, r16
     728:	13 82       	std	Z+3, r1	; 0x03
     72a:	12 82       	std	Z+2, r1	; 0x02
	if11.value = &stopDist.value; then1.value = &zero.value;
     72c:	6f ea       	ldi	r22, 0xAF	; 175
     72e:	70 e0       	ldi	r23, 0x00	; 0
     730:	6c 0f       	add	r22, r28
     732:	7d 1f       	adc	r23, r29
     734:	66 5f       	subi	r22, 0xF6	; 246
     736:	7f 4f       	sbci	r23, 0xFF	; 255
     738:	f7 01       	movw	r30, r14
     73a:	71 83       	std	Z+1, r23	; 0x01
     73c:	60 83       	st	Z, r22
     73e:	fa e0       	ldi	r31, 0x0A	; 10
     740:	4f 0e       	add	r4, r31
     742:	51 1c       	adc	r5, r1
     744:	f8 01       	movw	r30, r16
     746:	51 82       	std	Z+1, r5	; 0x01
     748:	40 82       	st	Z, r4

	// if dist is close then speed is slow
	struct rule_element_type if21, then2;
	rule2.if_side = &if21; if21.next = NULL; rule2.then_side = &then2; then2.next = NULL;
     74a:	0c 5f       	subi	r16, 0xFC	; 252
     74c:	1f 4f       	sbci	r17, 0xFF	; 255
     74e:	fa 01       	movw	r30, r20
     750:	11 83       	std	Z+1, r17	; 0x01
     752:	00 83       	st	Z, r16
     754:	f8 01       	movw	r30, r16
     756:	13 82       	std	Z+3, r1	; 0x03
     758:	12 82       	std	Z+2, r1	; 0x02
     75a:	62 5a       	subi	r22, 0xA2	; 162
     75c:	7e 4f       	sbci	r23, 0xFE	; 254
     75e:	fa 01       	movw	r30, r20
     760:	73 83       	std	Z+3, r23	; 0x03
     762:	62 83       	std	Z+2, r22	; 0x02
     764:	fb 01       	movw	r30, r22
     766:	13 82       	std	Z+3, r1	; 0x03
     768:	12 82       	std	Z+2, r1	; 0x02
	if21.value = &close.value; then2.value = &slow.value;
     76a:	4e 5e       	subi	r20, 0xEE	; 238
     76c:	51 09       	sbc	r21, r1
     76e:	f8 01       	movw	r30, r16
     770:	51 83       	std	Z+1, r21	; 0x01
     772:	40 83       	st	Z, r20
     774:	51 01       	movw	r10, r2
     776:	fa e0       	ldi	r31, 0x0A	; 10
     778:	af 0e       	add	r10, r31
     77a:	b1 1c       	adc	r11, r1
     77c:	fb 01       	movw	r30, r22
     77e:	b1 82       	std	Z+1, r11	; 0x01
     780:	a0 82       	st	Z, r10

	// if dist is faar and steering is right then speed is average
	struct rule_element_type if31, if32, then3;
	rule3.if_side = &if31; if31.next = &if32; if32.next = NULL; rule3.then_side = &then3; then3.next = NULL;
     782:	08 5f       	subi	r16, 0xF8	; 248
     784:	1f 4f       	sbci	r17, 0xFF	; 255
     786:	fc 01       	movw	r30, r24
     788:	11 83       	std	Z+1, r17	; 0x01
     78a:	00 83       	st	Z, r16
     78c:	40 5b       	subi	r20, 0xB0	; 176
     78e:	5e 4f       	sbci	r21, 0xFE	; 254
     790:	f8 01       	movw	r30, r16
     792:	53 83       	std	Z+3, r21	; 0x03
     794:	42 83       	std	Z+2, r20	; 0x02
     796:	fa 01       	movw	r30, r20
     798:	13 82       	std	Z+3, r1	; 0x03
     79a:	12 82       	std	Z+2, r1	; 0x02
     79c:	64 5f       	subi	r22, 0xF4	; 244
     79e:	7f 4f       	sbci	r23, 0xFF	; 255
     7a0:	fc 01       	movw	r30, r24
     7a2:	73 83       	std	Z+3, r23	; 0x03
     7a4:	62 83       	std	Z+2, r22	; 0x02
     7a6:	fb 01       	movw	r30, r22
     7a8:	13 82       	std	Z+3, r1	; 0x03
     7aa:	12 82       	std	Z+2, r1	; 0x02
	if31.value = &faar.value; if32.value = &right.value; then3.value = &average.value;
     7ac:	81 ef       	ldi	r24, 0xF1	; 241
     7ae:	90 e0       	ldi	r25, 0x00	; 0
     7b0:	8c 0f       	add	r24, r28
     7b2:	9d 1f       	adc	r25, r29
     7b4:	0a 96       	adiw	r24, 0x0a	; 10
     7b6:	f8 01       	movw	r30, r16
     7b8:	91 83       	std	Z+1, r25	; 0x01
     7ba:	80 83       	st	Z, r24
     7bc:	03 e8       	ldi	r16, 0x83	; 131
     7be:	10 e0       	ldi	r17, 0x00	; 0
     7c0:	0c 0f       	add	r16, r28
     7c2:	1d 1f       	adc	r17, r29
     7c4:	06 5f       	subi	r16, 0xF6	; 246
     7c6:	1f 4f       	sbci	r17, 0xFF	; 255
     7c8:	fa 01       	movw	r30, r20
     7ca:	11 83       	std	Z+1, r17	; 0x01
     7cc:	00 83       	st	Z, r16
     7ce:	4b e8       	ldi	r20, 0x8B	; 139
     7d0:	51 e0       	ldi	r21, 0x01	; 1
     7d2:	4c 0f       	add	r20, r28
     7d4:	5d 1f       	adc	r21, r29
     7d6:	46 5f       	subi	r20, 0xF6	; 246
     7d8:	5f 4f       	sbci	r21, 0xFF	; 255
     7da:	fb 01       	movw	r30, r22
     7dc:	51 83       	std	Z+1, r21	; 0x01
     7de:	40 83       	st	Z, r20

	// if dist is faar and steering is left then speed is average
	struct rule_element_type if41, if42, then4;
	rule4.if_side = &if41; if41.next = &if42; if42.next = NULL; rule4.then_side = &then4; then4.next = NULL;
     7e0:	7e 01       	movw	r14, r28
     7e2:	f9 ed       	ldi	r31, 0xD9	; 217
     7e4:	ef 1a       	sub	r14, r31
     7e6:	fd ef       	ldi	r31, 0xFD	; 253
     7e8:	ff 0a       	sbc	r15, r31
     7ea:	f9 01       	movw	r30, r18
     7ec:	f1 82       	std	Z+1, r15	; 0x01
     7ee:	e0 82       	st	Z, r14
     7f0:	02 56       	subi	r16, 0x62	; 98
     7f2:	1e 4f       	sbci	r17, 0xFE	; 254
     7f4:	f7 01       	movw	r30, r14
     7f6:	13 83       	std	Z+3, r17	; 0x03
     7f8:	02 83       	std	Z+2, r16	; 0x02
     7fa:	f8 01       	movw	r30, r16
     7fc:	13 82       	std	Z+3, r1	; 0x03
     7fe:	12 82       	std	Z+2, r1	; 0x02
     800:	64 5f       	subi	r22, 0xF4	; 244
     802:	7f 4f       	sbci	r23, 0xFF	; 255
     804:	f9 01       	movw	r30, r18
     806:	73 83       	std	Z+3, r23	; 0x03
     808:	62 83       	std	Z+2, r22	; 0x02
     80a:	fb 01       	movw	r30, r22
     80c:	13 82       	std	Z+3, r1	; 0x03
     80e:	12 82       	std	Z+2, r1	; 0x02
	if41.value = &faar.value; if42.value = &left.value; then4.value = &average.value;
     810:	f7 01       	movw	r30, r14
     812:	91 83       	std	Z+1, r25	; 0x01
     814:	80 83       	st	Z, r24
     816:	27 e5       	ldi	r18, 0x57	; 87
     818:	30 e0       	ldi	r19, 0x00	; 0
     81a:	2c 0f       	add	r18, r28
     81c:	3d 1f       	adc	r19, r29
     81e:	26 5f       	subi	r18, 0xF6	; 246
     820:	3f 4f       	sbci	r19, 0xFF	; 255
     822:	f8 01       	movw	r30, r16
     824:	31 83       	std	Z+1, r19	; 0x01
     826:	20 83       	st	Z, r18
     828:	fb 01       	movw	r30, r22
     82a:	51 83       	std	Z+1, r21	; 0x01
     82c:	40 83       	st	Z, r20

	// if dist is faar and steering is maxRight then speed is slow
	struct rule_element_type if51, if52, then5;
	rule5.if_side = &if51; if51.next = &if52; if52.next = NULL; rule5.then_side = &then5; then5.next = NULL;
     82e:	08 5f       	subi	r16, 0xF8	; 248
     830:	1f 4f       	sbci	r17, 0xFF	; 255
     832:	11 96       	adiw	r26, 0x01	; 1
     834:	1c 93       	st	X, r17
     836:	0e 93       	st	-X, r16
     838:	68 5f       	subi	r22, 0xF8	; 248
     83a:	7f 4f       	sbci	r23, 0xFF	; 255
     83c:	f8 01       	movw	r30, r16
     83e:	73 83       	std	Z+3, r23	; 0x03
     840:	62 83       	std	Z+2, r22	; 0x02
     842:	fb 01       	movw	r30, r22
     844:	13 82       	std	Z+3, r1	; 0x03
     846:	12 82       	std	Z+2, r1	; 0x02
     848:	26 52       	subi	r18, 0x26	; 38
     84a:	3e 4f       	sbci	r19, 0xFE	; 254
     84c:	13 96       	adiw	r26, 0x03	; 3
     84e:	3c 93       	st	X, r19
     850:	2e 93       	st	-X, r18
     852:	12 97       	sbiw	r26, 0x02	; 2
     854:	d9 01       	movw	r26, r18
     856:	13 96       	adiw	r26, 0x03	; 3
     858:	1c 92       	st	X, r1
     85a:	1e 92       	st	-X, r1
     85c:	12 97       	sbiw	r26, 0x02	; 2
	if51.value = &faar.value; if52.value = &maxRight.value; then5.value = &slow.value;
     85e:	f8 01       	movw	r30, r16
     860:	91 83       	std	Z+1, r25	; 0x01
     862:	80 83       	st	Z, r24
     864:	a9 e9       	ldi	r26, 0x99	; 153
     866:	b0 e0       	ldi	r27, 0x00	; 0
     868:	ac 0f       	add	r26, r28
     86a:	bd 1f       	adc	r27, r29
     86c:	1a 96       	adiw	r26, 0x0a	; 10
     86e:	fb 01       	movw	r30, r22
     870:	b1 83       	std	Z+1, r27	; 0x01
     872:	a0 83       	st	Z, r26
     874:	d9 01       	movw	r26, r18
     876:	ad 92       	st	X+, r10
     878:	bc 92       	st	X, r11
	
	// if dist is faar and steering is maxLeft then speed is slow
	struct rule_element_type if61, if62, then6;
	rule6.if_side = &if61; if61.next = &if62; if62.next = NULL; rule6.then_side = &then6; then6.next = NULL;
     87a:	68 5f       	subi	r22, 0xF8	; 248
     87c:	7f 4f       	sbci	r23, 0xFF	; 255
     87e:	cb 52       	subi	r28, 0x2B	; 43
     880:	de 4f       	sbci	r29, 0xFE	; 254
     882:	79 83       	std	Y+1, r23	; 0x01
     884:	68 83       	st	Y, r22
     886:	c5 5d       	subi	r28, 0xD5	; 213
     888:	d1 40       	sbci	r29, 0x01	; 1
     88a:	28 5f       	subi	r18, 0xF8	; 248
     88c:	3f 4f       	sbci	r19, 0xFF	; 255
     88e:	fb 01       	movw	r30, r22
     890:	33 83       	std	Z+3, r19	; 0x03
     892:	22 83       	std	Z+2, r18	; 0x02
     894:	d9 01       	movw	r26, r18
     896:	13 96       	adiw	r26, 0x03	; 3
     898:	1c 92       	st	X, r1
     89a:	1e 92       	st	-X, r1
     89c:	12 97       	sbiw	r26, 0x02	; 2
     89e:	14 96       	adiw	r26, 0x04	; 4
     8a0:	c9 52       	subi	r28, 0x29	; 41
     8a2:	de 4f       	sbci	r29, 0xFE	; 254
     8a4:	b9 83       	std	Y+1, r27	; 0x01
     8a6:	a8 83       	st	Y, r26
     8a8:	c7 5d       	subi	r28, 0xD7	; 215
     8aa:	d1 40       	sbci	r29, 0x01	; 1
     8ac:	13 96       	adiw	r26, 0x03	; 3
     8ae:	1c 92       	st	X, r1
     8b0:	1e 92       	st	-X, r1
     8b2:	12 97       	sbiw	r26, 0x02	; 2
	if61.value = &faar.value; if62.value = &maxLeft.value; then6.value = &slow.value;
     8b4:	91 83       	std	Z+1, r25	; 0x01
     8b6:	80 83       	st	Z, r24
     8b8:	61 e4       	ldi	r22, 0x41	; 65
     8ba:	70 e0       	ldi	r23, 0x00	; 0
     8bc:	6c 0f       	add	r22, r28
     8be:	7d 1f       	adc	r23, r29
     8c0:	66 5f       	subi	r22, 0xF6	; 246
     8c2:	7f 4f       	sbci	r23, 0xFF	; 255
     8c4:	f9 01       	movw	r30, r18
     8c6:	71 83       	std	Z+1, r23	; 0x01
     8c8:	60 83       	st	Z, r22
     8ca:	ad 92       	st	X+, r10
     8cc:	bc 92       	st	X, r11
	
	// if dist is distant and currentEsc is neutral then speed is slow
	struct rule_element_type if71, if72, then7;
	rule7.if_side = &if71; if71.next = &if72; if72.next = NULL; rule7.then_side = &then7; then7.next = NULL;
     8ce:	7e 5f       	subi	r23, 0xFE	; 254
     8d0:	d6 01       	movw	r26, r12
     8d2:	6d 93       	st	X+, r22
     8d4:	7c 93       	st	X, r23
     8d6:	04 5e       	subi	r16, 0xE4	; 228
     8d8:	1f 4f       	sbci	r17, 0xFF	; 255
     8da:	fb 01       	movw	r30, r22
     8dc:	13 83       	std	Z+3, r17	; 0x03
     8de:	02 83       	std	Z+2, r16	; 0x02
     8e0:	d8 01       	movw	r26, r16
     8e2:	13 96       	adiw	r26, 0x03	; 3
     8e4:	1c 92       	st	X, r1
     8e6:	1e 92       	st	-X, r1
     8e8:	12 97       	sbiw	r26, 0x02	; 2
     8ea:	38 96       	adiw	r30, 0x08	; 8
     8ec:	d6 01       	movw	r26, r12
     8ee:	13 96       	adiw	r26, 0x03	; 3
     8f0:	fc 93       	st	X, r31
     8f2:	ee 93       	st	-X, r30
     8f4:	12 97       	sbiw	r26, 0x02	; 2
     8f6:	13 82       	std	Z+3, r1	; 0x03
     8f8:	12 82       	std	Z+2, r1	; 0x02
	if71.value = &distant.value; if72.value = &neutral.value; then7.value = &slow.value;
     8fa:	2b ed       	ldi	r18, 0xDB	; 219
     8fc:	30 e0       	ldi	r19, 0x00	; 0
     8fe:	2c 0f       	add	r18, r28
     900:	3d 1f       	adc	r19, r29
     902:	26 5f       	subi	r18, 0xF6	; 246
     904:	3f 4f       	sbci	r19, 0xFF	; 255
     906:	db 01       	movw	r26, r22
     908:	2d 93       	st	X+, r18
     90a:	3c 93       	st	X, r19
     90c:	0f 2e       	mov	r0, r31
     90e:	f7 e0       	ldi	r31, 0x07	; 7
     910:	cf 2e       	mov	r12, r31
     912:	dd 24       	eor	r13, r13
     914:	d3 94       	inc	r13
     916:	f0 2d       	mov	r31, r0
     918:	cc 0e       	add	r12, r28
     91a:	dd 1e       	adc	r13, r29
     91c:	ba e0       	ldi	r27, 0x0A	; 10
     91e:	cb 0e       	add	r12, r27
     920:	d1 1c       	adc	r13, r1
     922:	d8 01       	movw	r26, r16
     924:	cd 92       	st	X+, r12
     926:	dc 92       	st	X, r13
     928:	b1 82       	std	Z+1, r11	; 0x01
     92a:	a0 82       	st	Z, r10
	
	// if dist is distant and currentEsc is low then speed is average
	struct rule_element_type if81, if82, then8;
	rule8.if_side = &if81; if81.next = &if82; if82.next = NULL; rule8.then_side = &then8; then8.next = NULL;
     92c:	64 5f       	subi	r22, 0xF4	; 244
     92e:	7f 4f       	sbci	r23, 0xFF	; 255
     930:	f4 01       	movw	r30, r8
     932:	71 83       	std	Z+1, r23	; 0x01
     934:	60 83       	st	Z, r22
     936:	04 5f       	subi	r16, 0xF4	; 244
     938:	1f 4f       	sbci	r17, 0xFF	; 255
     93a:	db 01       	movw	r26, r22
     93c:	13 96       	adiw	r26, 0x03	; 3
     93e:	1c 93       	st	X, r17
     940:	0e 93       	st	-X, r16
     942:	12 97       	sbiw	r26, 0x02	; 2
     944:	f8 01       	movw	r30, r16
     946:	13 82       	std	Z+3, r1	; 0x03
     948:	12 82       	std	Z+2, r1	; 0x02
     94a:	34 96       	adiw	r30, 0x04	; 4
     94c:	d4 01       	movw	r26, r8
     94e:	13 96       	adiw	r26, 0x03	; 3
     950:	fc 93       	st	X, r31
     952:	ee 93       	st	-X, r30
     954:	12 97       	sbiw	r26, 0x02	; 2
     956:	13 82       	std	Z+3, r1	; 0x03
     958:	12 82       	std	Z+2, r1	; 0x02
	if81.value = &distant.value; if82.value = &low.value; then8.value = &average.value;
     95a:	db 01       	movw	r26, r22
     95c:	2d 93       	st	X+, r18
     95e:	3c 93       	st	X, r19
     960:	0f 2e       	mov	r0, r31
     962:	fd e1       	ldi	r31, 0x1D	; 29
     964:	ef 2e       	mov	r14, r31
     966:	ff 24       	eor	r15, r15
     968:	f3 94       	inc	r15
     96a:	f0 2d       	mov	r31, r0
     96c:	ec 0e       	add	r14, r28
     96e:	fd 1e       	adc	r15, r29
     970:	ba e0       	ldi	r27, 0x0A	; 10
     972:	eb 0e       	add	r14, r27
     974:	f1 1c       	adc	r15, r1
     976:	d8 01       	movw	r26, r16
     978:	ed 92       	st	X+, r14
     97a:	fc 92       	st	X, r15
     97c:	51 83       	std	Z+1, r21	; 0x01
     97e:	40 83       	st	Z, r20
	
	// if dist is distant and currentEsc is medium then speed is average
	struct rule_element_type if91, if92, then9;
	rule9.if_side = &if91; if91.next = &if92; if92.next = NULL; rule9.then_side = &then9; then9.next = NULL;
     980:	64 5f       	subi	r22, 0xF4	; 244
     982:	7f 4f       	sbci	r23, 0xFF	; 255
     984:	f3 01       	movw	r30, r6
     986:	71 83       	std	Z+1, r23	; 0x01
     988:	60 83       	st	Z, r22
     98a:	4e 01       	movw	r8, r28
     98c:	f9 e9       	ldi	r31, 0x99	; 153
     98e:	8f 1a       	sub	r8, r31
     990:	fd ef       	ldi	r31, 0xFD	; 253
     992:	9f 0a       	sbc	r9, r31
     994:	db 01       	movw	r26, r22
     996:	13 96       	adiw	r26, 0x03	; 3
     998:	9c 92       	st	X, r9
     99a:	8e 92       	st	-X, r8
     99c:	12 97       	sbiw	r26, 0x02	; 2
     99e:	f4 01       	movw	r30, r8
     9a0:	13 82       	std	Z+3, r1	; 0x03
     9a2:	12 82       	std	Z+2, r1	; 0x02
     9a4:	34 96       	adiw	r30, 0x04	; 4
     9a6:	d3 01       	movw	r26, r6
     9a8:	13 96       	adiw	r26, 0x03	; 3
     9aa:	fc 93       	st	X, r31
     9ac:	ee 93       	st	-X, r30
     9ae:	12 97       	sbiw	r26, 0x02	; 2
     9b0:	13 82       	std	Z+3, r1	; 0x03
     9b2:	12 82       	std	Z+2, r1	; 0x02
	if91.value = &distant.value; if92.value = &medium.value; then9.value = &average.value;
     9b4:	db 01       	movw	r26, r22
     9b6:	2d 93       	st	X+, r18
     9b8:	3c 93       	st	X, r19
     9ba:	03 e3       	ldi	r16, 0x33	; 51
     9bc:	11 e0       	ldi	r17, 0x01	; 1
     9be:	0c 0f       	add	r16, r28
     9c0:	1d 1f       	adc	r17, r29
     9c2:	06 5f       	subi	r16, 0xF6	; 246
     9c4:	1f 4f       	sbci	r17, 0xFF	; 255
     9c6:	d4 01       	movw	r26, r8
     9c8:	0d 93       	st	X+, r16
     9ca:	1c 93       	st	X, r17
     9cc:	51 83       	std	Z+1, r21	; 0x01
     9ce:	40 83       	st	Z, r20
	
	// if dist is faar and steering is straight and currentEsc is neutral then speed is average
	struct rule_element_type if101, if102, if103, then10;
	rule10.if_side = &if101; if101.next = &if102; if102.next = &if103; if103.next = NULL; rule10.then_side = &then10; then10.next = NULL;
     9d0:	26 57       	subi	r18, 0x76	; 118
     9d2:	3e 4f       	sbci	r19, 0xFE	; 254
     9d4:	c3 51       	subi	r28, 0x13	; 19
     9d6:	de 4f       	sbci	r29, 0xFE	; 254
     9d8:	39 83       	std	Y+1, r19	; 0x01
     9da:	28 83       	st	Y, r18
     9dc:	cd 5e       	subi	r28, 0xED	; 237
     9de:	d1 40       	sbci	r29, 0x01	; 1
     9e0:	60 5f       	subi	r22, 0xF0	; 240
     9e2:	7f 4f       	sbci	r23, 0xFF	; 255
     9e4:	f9 01       	movw	r30, r18
     9e6:	73 83       	std	Z+3, r23	; 0x03
     9e8:	62 83       	std	Z+2, r22	; 0x02
     9ea:	4e 01       	movw	r8, r28
     9ec:	f9 e8       	ldi	r31, 0x89	; 137
     9ee:	8f 1a       	sub	r8, r31
     9f0:	fd ef       	ldi	r31, 0xFD	; 253
     9f2:	9f 0a       	sbc	r9, r31
     9f4:	db 01       	movw	r26, r22
     9f6:	13 96       	adiw	r26, 0x03	; 3
     9f8:	9c 92       	st	X, r9
     9fa:	8e 92       	st	-X, r8
     9fc:	12 97       	sbiw	r26, 0x02	; 2
     9fe:	f4 01       	movw	r30, r8
     a00:	13 82       	std	Z+3, r1	; 0x03
     a02:	12 82       	std	Z+2, r1	; 0x02
     a04:	34 96       	adiw	r30, 0x04	; 4
     a06:	c1 51       	subi	r28, 0x11	; 17
     a08:	de 4f       	sbci	r29, 0xFE	; 254
     a0a:	f9 83       	std	Y+1, r31	; 0x01
     a0c:	e8 83       	st	Y, r30
     a0e:	cf 5e       	subi	r28, 0xEF	; 239
     a10:	d1 40       	sbci	r29, 0x01	; 1
     a12:	13 82       	std	Z+3, r1	; 0x03
     a14:	12 82       	std	Z+2, r1	; 0x02
	if101.value = &faar.value; if102.value = &straight.value; if103.value = &neutral.value; then10.value = &slow.value;
     a16:	d9 01       	movw	r26, r18
     a18:	8d 93       	st	X+, r24
     a1a:	9c 93       	st	X, r25
     a1c:	2d e6       	ldi	r18, 0x6D	; 109
     a1e:	30 e0       	ldi	r19, 0x00	; 0
     a20:	2c 0f       	add	r18, r28
     a22:	3d 1f       	adc	r19, r29
     a24:	26 5f       	subi	r18, 0xF6	; 246
     a26:	3f 4f       	sbci	r19, 0xFF	; 255
     a28:	db 01       	movw	r26, r22
     a2a:	2d 93       	st	X+, r18
     a2c:	3c 93       	st	X, r19
     a2e:	d4 01       	movw	r26, r8
     a30:	11 96       	adiw	r26, 0x01	; 1
     a32:	dc 92       	st	X, r13
     a34:	ce 92       	st	-X, r12
     a36:	b1 82       	std	Z+1, r11	; 0x01
     a38:	a0 82       	st	Z, r10

	// if dist is faar and steering is straight and currentEsc is low then speed is average
	struct rule_element_type if111, if112, if113, then11;
	rule11.if_side = &if111; if111.next = &if112; if112.next = &if113; if113.next = NULL; rule11.then_side = &then11; then11.next = NULL;
     a3a:	6e 01       	movw	r12, r28
     a3c:	b1 e8       	ldi	r27, 0x81	; 129
     a3e:	cb 1a       	sub	r12, r27
     a40:	bd ef       	ldi	r27, 0xFD	; 253
     a42:	db 0a       	sbc	r13, r27
     a44:	cd 50       	subi	r28, 0x0D	; 13
     a46:	de 4f       	sbci	r29, 0xFE	; 254
     a48:	d9 82       	std	Y+1, r13	; 0x01
     a4a:	c8 82       	st	Y, r12
     a4c:	c3 5f       	subi	r28, 0xF3	; 243
     a4e:	d1 40       	sbci	r29, 0x01	; 1
     a50:	60 5f       	subi	r22, 0xF0	; 240
     a52:	7f 4f       	sbci	r23, 0xFF	; 255
     a54:	f6 01       	movw	r30, r12
     a56:	73 83       	std	Z+3, r23	; 0x03
     a58:	62 83       	std	Z+2, r22	; 0x02
     a5a:	50 96       	adiw	r26, 0x10	; 16
     a5c:	fb 01       	movw	r30, r22
     a5e:	b3 83       	std	Z+3, r27	; 0x03
     a60:	a2 83       	std	Z+2, r26	; 0x02
     a62:	13 96       	adiw	r26, 0x03	; 3
     a64:	1c 92       	st	X, r1
     a66:	1e 92       	st	-X, r1
     a68:	12 97       	sbiw	r26, 0x02	; 2
     a6a:	5e 01       	movw	r10, r28
     a6c:	f5 e7       	ldi	r31, 0x75	; 117
     a6e:	af 1a       	sub	r10, r31
     a70:	fd ef       	ldi	r31, 0xFD	; 253
     a72:	bf 0a       	sbc	r11, r31
     a74:	cb 50       	subi	r28, 0x0B	; 11
     a76:	de 4f       	sbci	r29, 0xFE	; 254
     a78:	b9 82       	std	Y+1, r11	; 0x01
     a7a:	a8 82       	st	Y, r10
     a7c:	c5 5f       	subi	r28, 0xF5	; 245
     a7e:	d1 40       	sbci	r29, 0x01	; 1
     a80:	f5 01       	movw	r30, r10
     a82:	13 82       	std	Z+3, r1	; 0x03
     a84:	12 82       	std	Z+2, r1	; 0x02
	if111.value = &faar.value; if112.value = &straight.value; if113.value = &low.value; then11.value = &average.value;
     a86:	f6 01       	movw	r30, r12
     a88:	91 83       	std	Z+1, r25	; 0x01
     a8a:	80 83       	st	Z, r24
     a8c:	fb 01       	movw	r30, r22
     a8e:	31 83       	std	Z+1, r19	; 0x01
     a90:	20 83       	st	Z, r18
     a92:	ed 92       	st	X+, r14
     a94:	fc 92       	st	X, r15
     a96:	d5 01       	movw	r26, r10
     a98:	11 96       	adiw	r26, 0x01	; 1
     a9a:	5c 93       	st	X, r21
     a9c:	4e 93       	st	-X, r20
	
	// if dist is faar and steering is straight and currentEsc is medium then speed is fast
	struct rule_element_type if121, if122, if123, then12;
	rule12.if_side = &if121; if121.next = &if122; if122.next = &if123; if123.next = NULL; rule12.then_side = &then12; then12.next = NULL;
     a9e:	64 5f       	subi	r22, 0xF4	; 244
     aa0:	7f 4f       	sbci	r23, 0xFF	; 255
     aa2:	c7 50       	subi	r28, 0x07	; 7
     aa4:	de 4f       	sbci	r29, 0xFE	; 254
     aa6:	79 83       	std	Y+1, r23	; 0x01
     aa8:	68 83       	st	Y, r22
     aaa:	c9 5f       	subi	r28, 0xF9	; 249
     aac:	d1 40       	sbci	r29, 0x01	; 1
     aae:	42 50       	subi	r20, 0x02	; 2
     ab0:	5f 4f       	sbci	r21, 0xFF	; 255
     ab2:	fb 01       	movw	r30, r22
     ab4:	53 83       	std	Z+3, r21	; 0x03
     ab6:	42 83       	std	Z+2, r20	; 0x02
     ab8:	1c 96       	adiw	r26, 0x0c	; 12
     aba:	fa 01       	movw	r30, r20
     abc:	b3 83       	std	Z+3, r27	; 0x03
     abe:	a2 83       	std	Z+2, r26	; 0x02
     ac0:	13 96       	adiw	r26, 0x03	; 3
     ac2:	1c 92       	st	X, r1
     ac4:	1e 92       	st	-X, r1
     ac6:	12 97       	sbiw	r26, 0x02	; 2
     ac8:	7e 01       	movw	r14, r28
     aca:	f5 e6       	ldi	r31, 0x65	; 101
     acc:	ef 1a       	sub	r14, r31
     ace:	fd ef       	ldi	r31, 0xFD	; 253
     ad0:	ff 0a       	sbc	r15, r31
     ad2:	c5 50       	subi	r28, 0x05	; 5
     ad4:	de 4f       	sbci	r29, 0xFE	; 254
     ad6:	f9 82       	std	Y+1, r15	; 0x01
     ad8:	e8 82       	st	Y, r14
     ada:	cb 5f       	subi	r28, 0xFB	; 251
     adc:	d1 40       	sbci	r29, 0x01	; 1
     ade:	f7 01       	movw	r30, r14
     ae0:	13 82       	std	Z+3, r1	; 0x03
     ae2:	12 82       	std	Z+2, r1	; 0x02
	if121.value = &faar.value; if122.value = &straight.value; if123.value = &medium.value; then12.value = &fast.value;
     ae4:	fb 01       	movw	r30, r22
     ae6:	91 83       	std	Z+1, r25	; 0x01
     ae8:	80 83       	st	Z, r24
     aea:	fa 01       	movw	r30, r20
     aec:	31 83       	std	Z+1, r19	; 0x01
     aee:	20 83       	st	Z, r18
     af0:	0d 93       	st	X+, r16
     af2:	1c 93       	st	X, r17
     af4:	41 ea       	ldi	r20, 0xA1	; 161
     af6:	51 e0       	ldi	r21, 0x01	; 1
     af8:	4c 0f       	add	r20, r28
     afa:	5d 1f       	adc	r21, r29
     afc:	46 5f       	subi	r20, 0xF6	; 246
     afe:	5f 4f       	sbci	r21, 0xFF	; 255
     b00:	d7 01       	movw	r26, r14
     b02:	11 96       	adiw	r26, 0x01	; 1
     b04:	5c 93       	st	X, r21
     b06:	4e 93       	st	-X, r20
	
	// if dist is faar and steering is straight and currentEsc is high then speed is fast
	struct rule_element_type if131, if132, if133, then13;
	rule13.if_side = &if131; if131.next = &if132; if132.next = &if133; if133.next = NULL; rule13.then_side = &then13; then13.next = NULL;
     b08:	0e 59       	subi	r16, 0x9E	; 158
     b0a:	1e 4f       	sbci	r17, 0xFE	; 254
     b0c:	c1 50       	subi	r28, 0x01	; 1
     b0e:	de 4f       	sbci	r29, 0xFE	; 254
     b10:	19 83       	std	Y+1, r17	; 0x01
     b12:	08 83       	st	Y, r16
     b14:	cf 5f       	subi	r28, 0xFF	; 255
     b16:	d1 40       	sbci	r29, 0x01	; 1
     b18:	6c 5e       	subi	r22, 0xEC	; 236
     b1a:	7f 4f       	sbci	r23, 0xFF	; 255
     b1c:	f8 01       	movw	r30, r16
     b1e:	73 83       	std	Z+3, r23	; 0x03
     b20:	62 83       	std	Z+2, r22	; 0x02
     b22:	1c 96       	adiw	r26, 0x0c	; 12
     b24:	fb 01       	movw	r30, r22
     b26:	b3 83       	std	Z+3, r27	; 0x03
     b28:	a2 83       	std	Z+2, r26	; 0x02
     b2a:	13 96       	adiw	r26, 0x03	; 3
     b2c:	1c 92       	st	X, r1
     b2e:	1e 92       	st	-X, r1
     b30:	12 97       	sbiw	r26, 0x02	; 2
     b32:	7e 01       	movw	r14, r28
     b34:	f5 e5       	ldi	r31, 0x55	; 85
     b36:	ef 1a       	sub	r14, r31
     b38:	fd ef       	ldi	r31, 0xFD	; 253
     b3a:	ff 0a       	sbc	r15, r31
     b3c:	cf 5f       	subi	r28, 0xFF	; 255
     b3e:	dd 4f       	sbci	r29, 0xFD	; 253
     b40:	f9 82       	std	Y+1, r15	; 0x01
     b42:	e8 82       	st	Y, r14
     b44:	c1 50       	subi	r28, 0x01	; 1
     b46:	d2 40       	sbci	r29, 0x02	; 2
     b48:	f7 01       	movw	r30, r14
     b4a:	13 82       	std	Z+3, r1	; 0x03
     b4c:	12 82       	std	Z+2, r1	; 0x02
	if131.value = &faar.value; if132.value = &straight.value; if133.value = &high.value; then13.value = &fast.value;
     b4e:	f8 01       	movw	r30, r16
     b50:	91 83       	std	Z+1, r25	; 0x01
     b52:	80 83       	st	Z, r24
     b54:	fb 01       	movw	r30, r22
     b56:	31 83       	std	Z+1, r19	; 0x01
     b58:	20 83       	st	Z, r18
     b5a:	69 e4       	ldi	r22, 0x49	; 73
     b5c:	71 e0       	ldi	r23, 0x01	; 1
     b5e:	6c 0f       	add	r22, r28
     b60:	7d 1f       	adc	r23, r29
     b62:	66 5f       	subi	r22, 0xF6	; 246
     b64:	7f 4f       	sbci	r23, 0xFF	; 255
     b66:	6d 93       	st	X+, r22
     b68:	7c 93       	st	X, r23
     b6a:	d7 01       	movw	r26, r14
     b6c:	11 96       	adiw	r26, 0x01	; 1
     b6e:	5c 93       	st	X, r21
     b70:	4e 93       	st	-X, r20

	// if dist is faar and steering is straight then speed is fast
	struct rule_element_type if141, if142, then14;
	rule14.if_side = &if141; if141.next = &if142; if142.next = NULL; rule14.then_side = &then14; then14.next = NULL;
     b72:	64 5a       	subi	r22, 0xA4	; 164
     b74:	7e 4f       	sbci	r23, 0xFE	; 254
     b76:	cb 5f       	subi	r28, 0xFB	; 251
     b78:	dd 4f       	sbci	r29, 0xFD	; 253
     b7a:	79 83       	std	Y+1, r23	; 0x01
     b7c:	68 83       	st	Y, r22
     b7e:	c5 50       	subi	r28, 0x05	; 5
     b80:	d2 40       	sbci	r29, 0x02	; 2
     b82:	18 96       	adiw	r26, 0x08	; 8
     b84:	fb 01       	movw	r30, r22
     b86:	b3 83       	std	Z+3, r27	; 0x03
     b88:	a2 83       	std	Z+2, r26	; 0x02
     b8a:	13 96       	adiw	r26, 0x03	; 3
     b8c:	1c 92       	st	X, r1
     b8e:	1e 92       	st	-X, r1
     b90:	12 97       	sbiw	r26, 0x02	; 2
     b92:	08 5e       	subi	r16, 0xE8	; 232
     b94:	1f 4f       	sbci	r17, 0xFF	; 255
     b96:	c9 5f       	subi	r28, 0xF9	; 249
     b98:	dd 4f       	sbci	r29, 0xFD	; 253
     b9a:	19 83       	std	Y+1, r17	; 0x01
     b9c:	08 83       	st	Y, r16
     b9e:	c7 50       	subi	r28, 0x07	; 7
     ba0:	d2 40       	sbci	r29, 0x02	; 2
     ba2:	f8 01       	movw	r30, r16
     ba4:	13 82       	std	Z+3, r1	; 0x03
     ba6:	12 82       	std	Z+2, r1	; 0x02
	if141.value = &faar.value; if142.value = &straight.value; then14.value = &fast.value;
     ba8:	fb 01       	movw	r30, r22
     baa:	91 83       	std	Z+1, r25	; 0x01
     bac:	80 83       	st	Z, r24
     bae:	2d 93       	st	X+, r18
     bb0:	3c 93       	st	X, r19
     bb2:	d8 01       	movw	r26, r16
     bb4:	4d 93       	st	X+, r20
     bb6:	5c 93       	st	X, r21


	// EXECUTING FUZZY LOGIC & OUTPUT VALUE
	//////////////////////////////////////////////////////////////////////////////

	fuzzification();
     bb8:	94 d0       	rcall	.+296    	; 0xce2 <fuzzification>
	rule_evaluation();
     bba:	ba d0       	rcall	.+372    	; 0xd30 <rule_evaluation>
	defuzzification();
     bbc:	ff d0       	rcall	.+510    	; 0xdbc <defuzzification>

	if (speed.value > MAXESC)
     bbe:	8b ad       	ldd	r24, Y+59	; 0x3b
     bc0:	9c ad       	ldd	r25, Y+60	; 0x3c
     bc2:	83 32       	cpi	r24, 0x23	; 35
     bc4:	bb e0       	ldi	r27, 0x0B	; 11
     bc6:	9b 07       	cpc	r25, r27
     bc8:	24 f0       	brlt	.+8      	; 0xbd2 <FLC_speed+0xabc>
	{
		setESC(MAXESC);
     bca:	82 e2       	ldi	r24, 0x22	; 34
     bcc:	9b e0       	ldi	r25, 0x0B	; 11
     bce:	fe d7       	rcall	.+4092   	; 0x1bcc <setESC>
     bd0:	09 c0       	rjmp	.+18     	; 0xbe4 <FLC_speed+0xace>
	}
	else if (speed.value < NEUTRAL)
     bd2:	8d 3c       	cpi	r24, 0xCD	; 205
     bd4:	ea e0       	ldi	r30, 0x0A	; 10
     bd6:	9e 07       	cpc	r25, r30
     bd8:	24 f4       	brge	.+8      	; 0xbe2 <FLC_speed+0xacc>
	{
		setESC(NEUTRAL);
     bda:	8d ec       	ldi	r24, 0xCD	; 205
     bdc:	9a e0       	ldi	r25, 0x0A	; 10
     bde:	f6 d7       	rcall	.+4076   	; 0x1bcc <setESC>
     be0:	01 c0       	rjmp	.+2      	; 0xbe4 <FLC_speed+0xace>
	}
	else
	{
	
		setESC(speed.value);
     be2:	f4 d7       	rcall	.+4072   	; 0x1bcc <setESC>
	}
    
    
}
     be4:	c6 54       	subi	r28, 0x46	; 70
     be6:	dd 4f       	sbci	r29, 0xFD	; 253
     be8:	0f b6       	in	r0, 0x3f	; 63
     bea:	f8 94       	cli
     bec:	de bf       	out	0x3e, r29	; 62
     bee:	0f be       	out	0x3f, r0	; 63
     bf0:	cd bf       	out	0x3d, r28	; 61
     bf2:	df 91       	pop	r29
     bf4:	cf 91       	pop	r28
     bf6:	1f 91       	pop	r17
     bf8:	0f 91       	pop	r16
     bfa:	ff 90       	pop	r15
     bfc:	ef 90       	pop	r14
     bfe:	df 90       	pop	r13
     c00:	cf 90       	pop	r12
     c02:	bf 90       	pop	r11
     c04:	af 90       	pop	r10
     c06:	9f 90       	pop	r9
     c08:	8f 90       	pop	r8
     c0a:	7f 90       	pop	r7
     c0c:	6f 90       	pop	r6
     c0e:	5f 90       	pop	r5
     c10:	4f 90       	pop	r4
     c12:	3f 90       	pop	r3
     c14:	2f 90       	pop	r2
     c16:	08 95       	ret

00000c18 <compute_degree_of_membership>:
 *
 */
void compute_degree_of_membership(mf,input)
struct mf_type *mf;
int input;
{
     c18:	fc 01       	movw	r30, r24
    int delta_1;
    int delta_2;
    delta_1 = input - mf->point1;
     c1a:	84 85       	ldd	r24, Z+12	; 0x0c
     c1c:	95 85       	ldd	r25, Z+13	; 0x0d
     c1e:	9b 01       	movw	r18, r22
     c20:	28 1b       	sub	r18, r24
     c22:	39 0b       	sbc	r19, r25
    delta_2 = mf->point2 - input;
     c24:	86 85       	ldd	r24, Z+14	; 0x0e
     c26:	97 85       	ldd	r25, Z+15	; 0x0f
     c28:	86 1b       	sub	r24, r22
     c2a:	97 0b       	sbc	r25, r23
    if ((delta_1 <= 0) || (delta_2 <= 0))   /* input outside mem. function ?  */
     c2c:	12 16       	cp	r1, r18
     c2e:	13 06       	cpc	r1, r19
     c30:	f4 f4       	brge	.+60     	; 0xc6e <compute_degree_of_membership+0x56>
     c32:	18 16       	cp	r1, r24
     c34:	19 06       	cpc	r1, r25
     c36:	f4 f4       	brge	.+60     	; 0xc74 <compute_degree_of_membership+0x5c>
        mf->value = 0;                           /* then degree of membership is 0 */
        else
            mf->value = min( (mf->slope1*delta_1),(mf->slope2*delta_2) );
     c38:	60 89       	ldd	r22, Z+16	; 0x10
     c3a:	71 89       	ldd	r23, Z+17	; 0x11
     c3c:	a2 89       	ldd	r26, Z+18	; 0x12
     c3e:	b3 89       	ldd	r27, Z+19	; 0x13
     c40:	8a 9f       	mul	r24, r26
     c42:	a0 01       	movw	r20, r0
     c44:	8b 9f       	mul	r24, r27
     c46:	50 0d       	add	r21, r0
     c48:	9a 9f       	mul	r25, r26
     c4a:	50 0d       	add	r21, r0
     c4c:	11 24       	eor	r1, r1
     c4e:	26 9f       	mul	r18, r22
     c50:	c0 01       	movw	r24, r0
     c52:	27 9f       	mul	r18, r23
     c54:	90 0d       	add	r25, r0
     c56:	36 9f       	mul	r19, r22
     c58:	90 0d       	add	r25, r0
     c5a:	11 24       	eor	r1, r1
     c5c:	48 17       	cp	r20, r24
     c5e:	59 07       	cpc	r21, r25
     c60:	0c f4       	brge	.+2      	; 0xc64 <compute_degree_of_membership+0x4c>
     c62:	ca 01       	movw	r24, r20
 */
int min(arg1,arg2)
int arg1;
int arg2;
{
    if (arg1<arg2)
     c64:	8f 3f       	cpi	r24, 0xFF	; 255
     c66:	91 05       	cpc	r25, r1
     c68:	09 f0       	breq	.+2      	; 0xc6c <compute_degree_of_membership+0x54>
     c6a:	3c f4       	brge	.+14     	; 0xc7a <compute_degree_of_membership+0x62>
     c6c:	08 c0       	rjmp	.+16     	; 0xc7e <compute_degree_of_membership+0x66>
    delta_2 = mf->point2 - input;
    if ((delta_1 <= 0) || (delta_2 <= 0))   /* input outside mem. function ?  */
        mf->value = 0;                           /* then degree of membership is 0 */
        else
            mf->value = min( (mf->slope1*delta_1),(mf->slope2*delta_2) );
            mf->value = min(mf->value,UPPER_LIMIT);  /* enforce upper limit */
     c6e:	80 e0       	ldi	r24, 0x00	; 0
     c70:	90 e0       	ldi	r25, 0x00	; 0
     c72:	05 c0       	rjmp	.+10     	; 0xc7e <compute_degree_of_membership+0x66>
     c74:	80 e0       	ldi	r24, 0x00	; 0
     c76:	90 e0       	ldi	r25, 0x00	; 0
     c78:	02 c0       	rjmp	.+4      	; 0xc7e <compute_degree_of_membership+0x66>
    {
        return(arg1);
    }
    else
    {
        return(arg2);
     c7a:	80 e0       	ldi	r24, 0x00	; 0
     c7c:	91 e0       	ldi	r25, 0x01	; 1
    delta_2 = mf->point2 - input;
    if ((delta_1 <= 0) || (delta_2 <= 0))   /* input outside mem. function ?  */
        mf->value = 0;                           /* then degree of membership is 0 */
        else
            mf->value = min( (mf->slope1*delta_1),(mf->slope2*delta_2) );
            mf->value = min(mf->value,UPPER_LIMIT);  /* enforce upper limit */
     c7e:	93 87       	std	Z+11, r25	; 0x0b
     c80:	82 87       	std	Z+10, r24	; 0x0a
     c82:	08 95       	ret

00000c84 <compute_area_of_trapezoid>:
 *    b=base=mf->point2-mf->point1
 *    a=f(h,b, mf->slopes1, mf->slope2)
 */
int compute_area_of_trapezoid(mf)
struct mf_type *mf;
{
     c84:	0f 93       	push	r16
     c86:	1f 93       	push	r17
     c88:	cf 93       	push	r28
     c8a:	df 93       	push	r29
     c8c:	fc 01       	movw	r30, r24
    int run_1;
    int run_2;
    int base;
    int top;
    int area;
    base = mf->point2 - mf->point1;
     c8e:	c6 85       	ldd	r28, Z+14	; 0x0e
     c90:	d7 85       	ldd	r29, Z+15	; 0x0f
     c92:	84 85       	ldd	r24, Z+12	; 0x0c
     c94:	95 85       	ldd	r25, Z+13	; 0x0d
     c96:	c8 1b       	sub	r28, r24
     c98:	d9 0b       	sbc	r29, r25
    run_1 = mf->value/mf->slope1;
     c9a:	22 85       	ldd	r18, Z+10	; 0x0a
     c9c:	33 85       	ldd	r19, Z+11	; 0x0b
     c9e:	60 89       	ldd	r22, Z+16	; 0x10
     ca0:	71 89       	ldd	r23, Z+17	; 0x11
     ca2:	c9 01       	movw	r24, r18
     ca4:	0e 94 6a 12 	call	0x24d4	; 0x24d4 <__divmodhi4>
    run_2 = mf->value/mf->slope2;
    top = base - run_1 - run_2;
     ca8:	8e 01       	movw	r16, r28
     caa:	06 1b       	sub	r16, r22
     cac:	17 0b       	sbc	r17, r23
    int base;
    int top;
    int area;
    base = mf->point2 - mf->point1;
    run_1 = mf->value/mf->slope1;
    run_2 = mf->value/mf->slope2;
     cae:	62 89       	ldd	r22, Z+18	; 0x12
     cb0:	73 89       	ldd	r23, Z+19	; 0x13
     cb2:	c9 01       	movw	r24, r18
     cb4:	0e 94 6a 12 	call	0x24d4	; 0x24d4 <__divmodhi4>
    top = base - run_1 - run_2;
     cb8:	06 1b       	sub	r16, r22
     cba:	17 0b       	sbc	r17, r23
    area = mf->value * ( base + top)/2;
     cbc:	c0 0f       	add	r28, r16
     cbe:	d1 1f       	adc	r29, r17
     cc0:	2c 9f       	mul	r18, r28
     cc2:	c0 01       	movw	r24, r0
     cc4:	2d 9f       	mul	r18, r29
     cc6:	90 0d       	add	r25, r0
     cc8:	3c 9f       	mul	r19, r28
     cca:	90 0d       	add	r25, r0
     ccc:	11 24       	eor	r1, r1
     cce:	99 23       	and	r25, r25
     cd0:	0c f4       	brge	.+2      	; 0xcd4 <compute_area_of_trapezoid+0x50>
     cd2:	01 96       	adiw	r24, 0x01	; 1
    return(area);
}
     cd4:	95 95       	asr	r25
     cd6:	87 95       	ror	r24
     cd8:	df 91       	pop	r29
     cda:	cf 91       	pop	r28
     cdc:	1f 91       	pop	r17
     cde:	0f 91       	pop	r16
     ce0:	08 95       	ret

00000ce2 <fuzzification>:

/* Degree of membership value is calculated for each membership function of 
 * each system input. Values correspond to antecedents in rules. 
 */
void fuzzification()
{
     ce2:	0f 93       	push	r16
     ce4:	1f 93       	push	r17
     ce6:	cf 93       	push	r28
     ce8:	df 93       	push	r29
    struct io_type *si;    /* system input pointer        */
    struct mf_type *mf;    /* membership function pointer */
    for(si=System_Inputs; si != NULL; si=si->next)
     cea:	00 91 1c 03 	lds	r16, 0x031C
     cee:	10 91 1d 03 	lds	r17, 0x031D
     cf2:	01 15       	cp	r16, r1
     cf4:	11 05       	cpc	r17, r1
     cf6:	b9 f0       	breq	.+46     	; 0xd26 <fuzzification+0x44>
        for(mf=si->membership_functions; mf != NULL; mf=mf->next)
     cf8:	f8 01       	movw	r30, r16
     cfa:	c4 85       	ldd	r28, Z+12	; 0x0c
     cfc:	d5 85       	ldd	r29, Z+13	; 0x0d
     cfe:	20 97       	sbiw	r28, 0x00	; 0
     d00:	61 f0       	breq	.+24     	; 0xd1a <fuzzification+0x38>
            if (mf!=NULL) {
     d02:	20 97       	sbiw	r28, 0x00	; 0
     d04:	29 f0       	breq	.+10     	; 0xd10 <fuzzification+0x2e>
                compute_degree_of_membership(mf,si->value);
     d06:	f8 01       	movw	r30, r16
     d08:	62 85       	ldd	r22, Z+10	; 0x0a
     d0a:	73 85       	ldd	r23, Z+11	; 0x0b
     d0c:	ce 01       	movw	r24, r28
     d0e:	84 df       	rcall	.-248    	; 0xc18 <compute_degree_of_membership>
void fuzzification()
{
    struct io_type *si;    /* system input pointer        */
    struct mf_type *mf;    /* membership function pointer */
    for(si=System_Inputs; si != NULL; si=si->next)
        for(mf=si->membership_functions; mf != NULL; mf=mf->next)
     d10:	0c 88       	ldd	r0, Y+20	; 0x14
     d12:	dd 89       	ldd	r29, Y+21	; 0x15
     d14:	c0 2d       	mov	r28, r0
     d16:	20 97       	sbiw	r28, 0x00	; 0
     d18:	a1 f7       	brne	.-24     	; 0xd02 <fuzzification+0x20>
 */
void fuzzification()
{
    struct io_type *si;    /* system input pointer        */
    struct mf_type *mf;    /* membership function pointer */
    for(si=System_Inputs; si != NULL; si=si->next)
     d1a:	f8 01       	movw	r30, r16
     d1c:	06 85       	ldd	r16, Z+14	; 0x0e
     d1e:	17 85       	ldd	r17, Z+15	; 0x0f
     d20:	01 15       	cp	r16, r1
     d22:	11 05       	cpc	r17, r1
     d24:	49 f7       	brne	.-46     	; 0xcf8 <fuzzification+0x16>
        for(mf=si->membership_functions; mf != NULL; mf=mf->next)
            if (mf!=NULL) {
                compute_degree_of_membership(mf,si->value);
            }
}
     d26:	df 91       	pop	r29
     d28:	cf 91       	pop	r28
     d2a:	1f 91       	pop	r17
     d2c:	0f 91       	pop	r16
     d2e:	08 95       	ret

00000d30 <rule_evaluation>:
 * to each of listed rule outputs. If an output has already been assigned a rule
 * strength, during current inference pass, a maximum function is used to
 * determine which strength should apply. 
 */
void rule_evaluation()
{
     d30:	0f 93       	push	r16
     d32:	1f 93       	push	r17
     d34:	cf 93       	push	r28
     d36:	df 93       	push	r29
    struct rule_type *rule;
    struct rule_element_type *ip;       /* pointer of antecedents  (if-parts)   */
    struct rule_element_type *tp;       /* pointer to consequences (then-parts) */
    int strength;                /* strength of  rule currently being evaluated */
    for(rule=Rule_Base; rule != NULL; rule=rule->next){
     d38:	c0 91 1e 03 	lds	r28, 0x031E
     d3c:	d0 91 1f 03 	lds	r29, 0x031F
     d40:	20 97       	sbiw	r28, 0x00	; 0
     d42:	b9 f1       	breq	.+110    	; 0xdb2 <rule_evaluation+0x82>
        strength = UPPER_LIMIT;                       /* max rule strength allowed */
     d44:	00 e0       	ldi	r16, 0x00	; 0
     d46:	11 e0       	ldi	r17, 0x01	; 1
        /* process if-side of rule to determine strength */
        for(ip=rule->if_side; ip != NULL; ip=ip->next)
     d48:	e8 81       	ld	r30, Y
     d4a:	f9 81       	ldd	r31, Y+1	; 0x01
     d4c:	30 97       	sbiw	r30, 0x00	; 0
     d4e:	81 f0       	breq	.+32     	; 0xd70 <rule_evaluation+0x40>
    struct rule_type *rule;
    struct rule_element_type *ip;       /* pointer of antecedents  (if-parts)   */
    struct rule_element_type *tp;       /* pointer to consequences (then-parts) */
    int strength;                /* strength of  rule currently being evaluated */
    for(rule=Rule_Base; rule != NULL; rule=rule->next){
        strength = UPPER_LIMIT;                       /* max rule strength allowed */
     d50:	20 2f       	mov	r18, r16
     d52:	31 2f       	mov	r19, r17
        /* process if-side of rule to determine strength */
        for(ip=rule->if_side; ip != NULL; ip=ip->next)
            strength = min(strength,*(ip->value));
     d54:	a0 81       	ld	r26, Z
     d56:	b1 81       	ldd	r27, Z+1	; 0x01
     d58:	8d 91       	ld	r24, X+
     d5a:	9c 91       	ld	r25, X
     d5c:	82 17       	cp	r24, r18
     d5e:	93 07       	cpc	r25, r19
     d60:	0c f4       	brge	.+2      	; 0xd64 <rule_evaluation+0x34>
     d62:	9c 01       	movw	r18, r24
    struct rule_element_type *tp;       /* pointer to consequences (then-parts) */
    int strength;                /* strength of  rule currently being evaluated */
    for(rule=Rule_Base; rule != NULL; rule=rule->next){
        strength = UPPER_LIMIT;                       /* max rule strength allowed */
        /* process if-side of rule to determine strength */
        for(ip=rule->if_side; ip != NULL; ip=ip->next)
     d64:	02 80       	ldd	r0, Z+2	; 0x02
     d66:	f3 81       	ldd	r31, Z+3	; 0x03
     d68:	e0 2d       	mov	r30, r0
     d6a:	30 97       	sbiw	r30, 0x00	; 0
     d6c:	99 f7       	brne	.-26     	; 0xd54 <rule_evaluation+0x24>
     d6e:	02 c0       	rjmp	.+4      	; 0xd74 <rule_evaluation+0x44>
    struct rule_type *rule;
    struct rule_element_type *ip;       /* pointer of antecedents  (if-parts)   */
    struct rule_element_type *tp;       /* pointer to consequences (then-parts) */
    int strength;                /* strength of  rule currently being evaluated */
    for(rule=Rule_Base; rule != NULL; rule=rule->next){
        strength = UPPER_LIMIT;                       /* max rule strength allowed */
     d70:	20 2f       	mov	r18, r16
     d72:	31 2f       	mov	r19, r17
        /* process if-side of rule to determine strength */
        for(ip=rule->if_side; ip != NULL; ip=ip->next)
            strength = min(strength,*(ip->value));
        /* process then-side of rule to apply strength */
        for(tp=rule->then_side; tp != NULL; tp=tp->next)
     d74:	ea 81       	ldd	r30, Y+2	; 0x02
     d76:	fb 81       	ldd	r31, Y+3	; 0x03
     d78:	30 97       	sbiw	r30, 0x00	; 0
     d7a:	b1 f0       	breq	.+44     	; 0xda8 <rule_evaluation+0x78>
     d7c:	72 2f       	mov	r23, r18
     d7e:	63 2f       	mov	r22, r19
            *(tp->value) = max(strength,*(tp->value));
     d80:	a0 81       	ld	r26, Z
     d82:	b1 81       	ldd	r27, Z+1	; 0x01
     d84:	8d 91       	ld	r24, X+
     d86:	9c 91       	ld	r25, X
     d88:	11 97       	sbiw	r26, 0x01	; 1
     d8a:	57 2f       	mov	r21, r23
     d8c:	46 2f       	mov	r20, r22
     d8e:	28 17       	cp	r18, r24
     d90:	39 07       	cpc	r19, r25
     d92:	14 f4       	brge	.+4      	; 0xd98 <rule_evaluation+0x68>
     d94:	58 2f       	mov	r21, r24
     d96:	49 2f       	mov	r20, r25
     d98:	5c 93       	st	X, r21
     d9a:	11 96       	adiw	r26, 0x01	; 1
     d9c:	4c 93       	st	X, r20
        strength = UPPER_LIMIT;                       /* max rule strength allowed */
        /* process if-side of rule to determine strength */
        for(ip=rule->if_side; ip != NULL; ip=ip->next)
            strength = min(strength,*(ip->value));
        /* process then-side of rule to apply strength */
        for(tp=rule->then_side; tp != NULL; tp=tp->next)
     d9e:	02 80       	ldd	r0, Z+2	; 0x02
     da0:	f3 81       	ldd	r31, Z+3	; 0x03
     da2:	e0 2d       	mov	r30, r0
     da4:	30 97       	sbiw	r30, 0x00	; 0
     da6:	61 f7       	brne	.-40     	; 0xd80 <rule_evaluation+0x50>
{
    struct rule_type *rule;
    struct rule_element_type *ip;       /* pointer of antecedents  (if-parts)   */
    struct rule_element_type *tp;       /* pointer to consequences (then-parts) */
    int strength;                /* strength of  rule currently being evaluated */
    for(rule=Rule_Base; rule != NULL; rule=rule->next){
     da8:	0c 80       	ldd	r0, Y+4	; 0x04
     daa:	dd 81       	ldd	r29, Y+5	; 0x05
     dac:	c0 2d       	mov	r28, r0
     dae:	20 97       	sbiw	r28, 0x00	; 0
     db0:	59 f6       	brne	.-106    	; 0xd48 <rule_evaluation+0x18>
            strength = min(strength,*(ip->value));
        /* process then-side of rule to apply strength */
        for(tp=rule->then_side; tp != NULL; tp=tp->next)
            *(tp->value) = max(strength,*(tp->value));
    }
}
     db2:	df 91       	pop	r29
     db4:	cf 91       	pop	r28
     db6:	1f 91       	pop	r17
     db8:	0f 91       	pop	r16
     dba:	08 95       	ret

00000dbc <defuzzification>:
 * gravity). For each system output the corresponding output membership function
 * strength are used to calculate the sum of areas that constitutes the basis
 * of centroid calculations
 */
void defuzzification()
{
     dbc:	2f 92       	push	r2
     dbe:	3f 92       	push	r3
     dc0:	4f 92       	push	r4
     dc2:	5f 92       	push	r5
     dc4:	6f 92       	push	r6
     dc6:	7f 92       	push	r7
     dc8:	8f 92       	push	r8
     dca:	9f 92       	push	r9
     dcc:	af 92       	push	r10
     dce:	bf 92       	push	r11
     dd0:	cf 92       	push	r12
     dd2:	df 92       	push	r13
     dd4:	ef 92       	push	r14
     dd6:	ff 92       	push	r15
     dd8:	0f 93       	push	r16
     dda:	1f 93       	push	r17
     ddc:	cf 93       	push	r28
     dde:	df 93       	push	r29
     de0:	00 d0       	rcall	.+0      	; 0xde2 <defuzzification+0x26>
     de2:	00 d0       	rcall	.+0      	; 0xde4 <defuzzification+0x28>
     de4:	00 d0       	rcall	.+0      	; 0xde6 <defuzzification+0x2a>
     de6:	cd b7       	in	r28, 0x3d	; 61
     de8:	de b7       	in	r29, 0x3e	; 62
    double sum_of_areas;  /* sum of shortend trapezoid area */
    double area;
    double centroid;
	double result;
    /* compute a defuzzified value for each system output */
    for(so=System_Outputs; so != NULL; so=so->next){
     dea:	80 91 1a 03 	lds	r24, 0x031A
     dee:	90 91 1b 03 	lds	r25, 0x031B
     df2:	9c 83       	std	Y+4, r25	; 0x04
     df4:	8b 83       	std	Y+3, r24	; 0x03
     df6:	89 2b       	or	r24, r25
     df8:	09 f4       	brne	.+2      	; 0xdfc <defuzzification+0x40>
     dfa:	8d c0       	rjmp	.+282    	; 0xf16 <defuzzification+0x15a>
        sum_of_products = 0;
        sum_of_areas = 0;
		centroid = 0;
		result = 0;
        for(mf=so->membership_functions; mf != NULL; mf=mf->next){
     dfc:	eb 81       	ldd	r30, Y+3	; 0x03
     dfe:	fc 81       	ldd	r31, Y+4	; 0x04
     e00:	04 84       	ldd	r0, Z+12	; 0x0c
     e02:	f5 85       	ldd	r31, Z+13	; 0x0d
     e04:	e0 2d       	mov	r30, r0
     e06:	fe 83       	std	Y+6, r31	; 0x06
     e08:	ed 83       	std	Y+5, r30	; 0x05
     e0a:	ef 2b       	or	r30, r31
     e0c:	09 f4       	brne	.+2      	; 0xe10 <defuzzification+0x54>
     e0e:	6e c0       	rjmp	.+220    	; 0xeec <defuzzification+0x130>
    double centroid;
	double result;
    /* compute a defuzzified value for each system output */
    for(so=System_Outputs; so != NULL; so=so->next){
        sum_of_products = 0;
        sum_of_areas = 0;
     e10:	51 2c       	mov	r5, r1
     e12:	61 2c       	mov	r6, r1
     e14:	71 2c       	mov	r7, r1
     e16:	41 2c       	mov	r4, r1
    double area;
    double centroid;
	double result;
    /* compute a defuzzified value for each system output */
    for(so=System_Outputs; so != NULL; so=so->next){
        sum_of_products = 0;
     e18:	31 2c       	mov	r3, r1
     e1a:	21 2c       	mov	r2, r1
     e1c:	19 82       	std	Y+1, r1	; 0x01
     e1e:	1a 82       	std	Y+2, r1	; 0x02
        sum_of_areas = 0;
		centroid = 0;
		result = 0;
        for(mf=so->membership_functions; mf != NULL; mf=mf->next){
            area = compute_area_of_trapezoid(mf);
     e20:	8d 81       	ldd	r24, Y+5	; 0x05
     e22:	9e 81       	ldd	r25, Y+6	; 0x06
     e24:	2f df       	rcall	.-418    	; 0xc84 <compute_area_of_trapezoid>
     e26:	bc 01       	movw	r22, r24
     e28:	88 27       	eor	r24, r24
     e2a:	77 fd       	sbrc	r23, 7
     e2c:	80 95       	com	r24
     e2e:	98 2f       	mov	r25, r24
     e30:	0e 94 7b 11 	call	0x22f6	; 0x22f6 <__floatsisf>
     e34:	6b 01       	movw	r12, r22
     e36:	7c 01       	movw	r14, r24
			centroid = mf->point1;
     e38:	ed 81       	ldd	r30, Y+5	; 0x05
     e3a:	fe 81       	ldd	r31, Y+6	; 0x06
     e3c:	04 85       	ldd	r16, Z+12	; 0x0c
     e3e:	15 85       	ldd	r17, Z+13	; 0x0d
     e40:	b8 01       	movw	r22, r16
     e42:	88 27       	eor	r24, r24
     e44:	77 fd       	sbrc	r23, 7
     e46:	80 95       	com	r24
     e48:	98 2f       	mov	r25, r24
     e4a:	0e 94 7b 11 	call	0x22f6	; 0x22f6 <__floatsisf>
     e4e:	4b 01       	movw	r8, r22
     e50:	5c 01       	movw	r10, r24
			int intermed = (int) ((mf->point2 - mf->point1)/2);
     e52:	ed 81       	ldd	r30, Y+5	; 0x05
     e54:	fe 81       	ldd	r31, Y+6	; 0x06
     e56:	86 85       	ldd	r24, Z+14	; 0x0e
     e58:	97 85       	ldd	r25, Z+15	; 0x0f
     e5a:	80 1b       	sub	r24, r16
     e5c:	91 0b       	sbc	r25, r17
     e5e:	bc 01       	movw	r22, r24
     e60:	12 f4       	brpl	.+4      	; 0xe66 <defuzzification+0xaa>
     e62:	6f 5f       	subi	r22, 0xFF	; 255
     e64:	7f 4f       	sbci	r23, 0xFF	; 255
     e66:	75 95       	asr	r23
     e68:	67 95       	ror	r22
            centroid = centroid + intermed;
     e6a:	88 27       	eor	r24, r24
     e6c:	77 fd       	sbrc	r23, 7
     e6e:	80 95       	com	r24
     e70:	98 2f       	mov	r25, r24
     e72:	0e 94 7b 11 	call	0x22f6	; 0x22f6 <__floatsisf>
     e76:	a5 01       	movw	r20, r10
     e78:	94 01       	movw	r18, r8
     e7a:	0e 94 7c 10 	call	0x20f8	; 0x20f8 <__addsf3>
     e7e:	9b 01       	movw	r18, r22
     e80:	ac 01       	movw	r20, r24
            sum_of_products += area * centroid;
     e82:	c7 01       	movw	r24, r14
     e84:	b6 01       	movw	r22, r12
     e86:	0e 94 07 12 	call	0x240e	; 0x240e <__mulsf3>
     e8a:	9b 01       	movw	r18, r22
     e8c:	ac 01       	movw	r20, r24
     e8e:	63 2d       	mov	r22, r3
     e90:	72 2d       	mov	r23, r2
     e92:	89 81       	ldd	r24, Y+1	; 0x01
     e94:	9a 81       	ldd	r25, Y+2	; 0x02
     e96:	0e 94 7c 10 	call	0x20f8	; 0x20f8 <__addsf3>
     e9a:	36 2e       	mov	r3, r22
     e9c:	27 2e       	mov	r2, r23
     e9e:	89 83       	std	Y+1, r24	; 0x01
     ea0:	9a 83       	std	Y+2, r25	; 0x02
            sum_of_areas += area;
     ea2:	a7 01       	movw	r20, r14
     ea4:	96 01       	movw	r18, r12
     ea6:	65 2d       	mov	r22, r5
     ea8:	76 2d       	mov	r23, r6
     eaa:	87 2d       	mov	r24, r7
     eac:	94 2d       	mov	r25, r4
     eae:	0e 94 7c 10 	call	0x20f8	; 0x20f8 <__addsf3>
     eb2:	56 2e       	mov	r5, r22
     eb4:	67 2e       	mov	r6, r23
     eb6:	78 2e       	mov	r7, r24
     eb8:	49 2e       	mov	r4, r25
    for(so=System_Outputs; so != NULL; so=so->next){
        sum_of_products = 0;
        sum_of_areas = 0;
		centroid = 0;
		result = 0;
        for(mf=so->membership_functions; mf != NULL; mf=mf->next){
     eba:	ed 81       	ldd	r30, Y+5	; 0x05
     ebc:	fe 81       	ldd	r31, Y+6	; 0x06
     ebe:	04 88       	ldd	r0, Z+20	; 0x14
     ec0:	f5 89       	ldd	r31, Z+21	; 0x15
     ec2:	e0 2d       	mov	r30, r0
     ec4:	fe 83       	std	Y+6, r31	; 0x06
     ec6:	ed 83       	std	Y+5, r30	; 0x05
     ec8:	ef 2b       	or	r30, r31
     eca:	09 f0       	breq	.+2      	; 0xece <defuzzification+0x112>
     ecc:	a9 cf       	rjmp	.-174    	; 0xe20 <defuzzification+0x64>
			centroid = mf->point1;
			int intermed = (int) ((mf->point2 - mf->point1)/2);
            centroid = centroid + intermed;
            sum_of_products += area * centroid;
            sum_of_areas += area;
			result = (sum_of_products/sum_of_areas); /* weighted average */
     ece:	26 2f       	mov	r18, r22
     ed0:	37 2f       	mov	r19, r23
     ed2:	48 2f       	mov	r20, r24
     ed4:	59 2f       	mov	r21, r25
     ed6:	63 2d       	mov	r22, r3
     ed8:	72 2d       	mov	r23, r2
     eda:	89 81       	ldd	r24, Y+1	; 0x01
     edc:	9a 81       	ldd	r25, Y+2	; 0x02
     ede:	0e 94 e0 10 	call	0x21c0	; 0x21c0 <__divsf3>
     ee2:	26 2f       	mov	r18, r22
     ee4:	37 2f       	mov	r19, r23
     ee6:	48 2f       	mov	r20, r24
     ee8:	59 2f       	mov	r21, r25
     eea:	04 c0       	rjmp	.+8      	; 0xef4 <defuzzification+0x138>
    /* compute a defuzzified value for each system output */
    for(so=System_Outputs; so != NULL; so=so->next){
        sum_of_products = 0;
        sum_of_areas = 0;
		centroid = 0;
		result = 0;
     eec:	20 e0       	ldi	r18, 0x00	; 0
     eee:	30 e0       	ldi	r19, 0x00	; 0
     ef0:	40 e0       	ldi	r20, 0x00	; 0
     ef2:	50 e0       	ldi	r21, 0x00	; 0
            centroid = centroid + intermed;
            sum_of_products += area * centroid;
            sum_of_areas += area;
			result = (sum_of_products/sum_of_areas); /* weighted average */
        }
        so->value = (int) result;  
     ef4:	62 2f       	mov	r22, r18
     ef6:	73 2f       	mov	r23, r19
     ef8:	84 2f       	mov	r24, r20
     efa:	95 2f       	mov	r25, r21
     efc:	0e 94 48 11 	call	0x2290	; 0x2290 <__fixsfsi>
     f00:	eb 81       	ldd	r30, Y+3	; 0x03
     f02:	fc 81       	ldd	r31, Y+4	; 0x04
     f04:	73 87       	std	Z+11, r23	; 0x0b
     f06:	62 87       	std	Z+10, r22	; 0x0a
    double sum_of_areas;  /* sum of shortend trapezoid area */
    double area;
    double centroid;
	double result;
    /* compute a defuzzified value for each system output */
    for(so=System_Outputs; so != NULL; so=so->next){
     f08:	86 85       	ldd	r24, Z+14	; 0x0e
     f0a:	97 85       	ldd	r25, Z+15	; 0x0f
     f0c:	9c 83       	std	Y+4, r25	; 0x04
     f0e:	8b 83       	std	Y+3, r24	; 0x03
     f10:	89 2b       	or	r24, r25
     f12:	09 f0       	breq	.+2      	; 0xf16 <defuzzification+0x15a>
     f14:	73 cf       	rjmp	.-282    	; 0xdfc <defuzzification+0x40>
            sum_of_areas += area;
			result = (sum_of_products/sum_of_areas); /* weighted average */
        }
        so->value = (int) result;  
    }
}
     f16:	26 96       	adiw	r28, 0x06	; 6
     f18:	0f b6       	in	r0, 0x3f	; 63
     f1a:	f8 94       	cli
     f1c:	de bf       	out	0x3e, r29	; 62
     f1e:	0f be       	out	0x3f, r0	; 63
     f20:	cd bf       	out	0x3d, r28	; 61
     f22:	df 91       	pop	r29
     f24:	cf 91       	pop	r28
     f26:	1f 91       	pop	r17
     f28:	0f 91       	pop	r16
     f2a:	ff 90       	pop	r15
     f2c:	ef 90       	pop	r14
     f2e:	df 90       	pop	r13
     f30:	cf 90       	pop	r12
     f32:	bf 90       	pop	r11
     f34:	af 90       	pop	r10
     f36:	9f 90       	pop	r9
     f38:	8f 90       	pop	r8
     f3a:	7f 90       	pop	r7
     f3c:	6f 90       	pop	r6
     f3e:	5f 90       	pop	r5
     f40:	4f 90       	pop	r4
     f42:	3f 90       	pop	r3
     f44:	2f 90       	pop	r2
     f46:	08 95       	ret

00000f48 <MATLAB_MF>:
 * MATLAB_MF takes four parameters defining a trapezoid or triangular mf
 * function in MATLAB's tool for fuzzy logic design and returns a MF according
 * to the format of general_FIS.c with two end points and two slopes
 */
void MATLAB_MF(struct mf_type *newMf, char newname[MAXNAME], int p1, int p2, int p3, int p4)
{
     f48:	af 92       	push	r10
     f4a:	bf 92       	push	r11
     f4c:	cf 92       	push	r12
     f4e:	df 92       	push	r13
     f50:	ef 92       	push	r14
     f52:	ff 92       	push	r15
     f54:	0f 93       	push	r16
     f56:	1f 93       	push	r17
     f58:	cf 93       	push	r28
     f5a:	df 93       	push	r29
     f5c:	ec 01       	movw	r28, r24
     f5e:	6a 01       	movw	r12, r20
     f60:	59 01       	movw	r10, r18
    strcpy(newMf->name, newname);
     f62:	0e 94 91 12 	call	0x2522	; 0x2522 <strcpy>
    newMf->value = 0;
     f66:	1b 86       	std	Y+11, r1	; 0x0b
     f68:	1a 86       	std	Y+10, r1	; 0x0a
    newMf->point1 = p1;
     f6a:	dd 86       	std	Y+13, r13	; 0x0d
     f6c:	cc 86       	std	Y+12, r12	; 0x0c
    newMf->point2 = p4;
     f6e:	ff 86       	std	Y+15, r15	; 0x0f
     f70:	ee 86       	std	Y+14, r14	; 0x0e
    newMf->slope1 = (int)UPPER_LIMIT/(p2-p1);
     f72:	b5 01       	movw	r22, r10
     f74:	6c 19       	sub	r22, r12
     f76:	7d 09       	sbc	r23, r13
     f78:	20 e0       	ldi	r18, 0x00	; 0
     f7a:	31 e0       	ldi	r19, 0x01	; 1
     f7c:	c9 01       	movw	r24, r18
     f7e:	0e 94 6a 12 	call	0x24d4	; 0x24d4 <__divmodhi4>
     f82:	79 8b       	std	Y+17, r23	; 0x11
     f84:	68 8b       	std	Y+16, r22	; 0x10
    newMf->slope2 = (int)UPPER_LIMIT/(p4-p3);
     f86:	b7 01       	movw	r22, r14
     f88:	60 1b       	sub	r22, r16
     f8a:	71 0b       	sbc	r23, r17
     f8c:	c9 01       	movw	r24, r18
     f8e:	0e 94 6a 12 	call	0x24d4	; 0x24d4 <__divmodhi4>
     f92:	7b 8b       	std	Y+19, r23	; 0x13
     f94:	6a 8b       	std	Y+18, r22	; 0x12
}
     f96:	df 91       	pop	r29
     f98:	cf 91       	pop	r28
     f9a:	1f 91       	pop	r17
     f9c:	0f 91       	pop	r16
     f9e:	ff 90       	pop	r15
     fa0:	ef 90       	pop	r14
     fa2:	df 90       	pop	r13
     fa4:	cf 90       	pop	r12
     fa6:	bf 90       	pop	r11
     fa8:	af 90       	pop	r10
     faa:	08 95       	ret

00000fac <straightIntersection>:
void straightIntersection(int c1);



void straightIntersection(int c1)
{
     fac:	4f 92       	push	r4
     fae:	5f 92       	push	r5
     fb0:	6f 92       	push	r6
     fb2:	7f 92       	push	r7
     fb4:	8f 92       	push	r8
     fb6:	9f 92       	push	r9
     fb8:	af 92       	push	r10
     fba:	bf 92       	push	r11
     fbc:	cf 92       	push	r12
     fbe:	df 92       	push	r13
     fc0:	ef 92       	push	r14
     fc2:	ff 92       	push	r15
     fc4:	0f 93       	push	r16
     fc6:	1f 93       	push	r17
     fc8:	cf 93       	push	r28
     fca:	df 93       	push	r29
     fcc:	cd b7       	in	r28, 0x3d	; 61
     fce:	de b7       	in	r29, 0x3e	; 62
     fd0:	ce 5c       	subi	r28, 0xCE	; 206
     fd2:	d1 09       	sbc	r29, r1
     fd4:	0f b6       	in	r0, 0x3f	; 63
     fd6:	f8 94       	cli
     fd8:	de bf       	out	0x3e, r29	; 62
     fda:	0f be       	out	0x3f, r0	; 63
     fdc:	cd bf       	out	0x3d, r28	; 61
	

	
	///// DECLARATION OF C INPUT VARIABLE ///////////////////////////////////
	//
	struct io_type cPosition; strcpy(cPosition.name, "cPosition");
     fde:	2a e0       	ldi	r18, 0x0A	; 10
     fe0:	e8 e9       	ldi	r30, 0x98	; 152
     fe2:	f1 e0       	ldi	r31, 0x01	; 1
     fe4:	de 01       	movw	r26, r28
     fe6:	11 96       	adiw	r26, 0x01	; 1
     fe8:	01 90       	ld	r0, Z+
     fea:	0d 92       	st	X+, r0
     fec:	2a 95       	dec	r18
     fee:	e1 f7       	brne	.-8      	; 0xfe8 <straightIntersection+0x3c>


	// set iErr's input value to measErr value
	if(c1<50)				// if sensor value is smaller than cPosition's input set's lower limit
     ff0:	82 33       	cpi	r24, 0x32	; 50
     ff2:	91 05       	cpc	r25, r1
     ff4:	2c f4       	brge	.+10     	; 0x1000 <straightIntersection+0x54>
	{
		cPosition.value = 50;  // force input value to lowest point in cPosition's input set
     ff6:	82 e3       	ldi	r24, 0x32	; 50
     ff8:	90 e0       	ldi	r25, 0x00	; 0
     ffa:	9c 87       	std	Y+12, r25	; 0x0c
     ffc:	8b 87       	std	Y+11, r24	; 0x0b
     ffe:	0a c0       	rjmp	.+20     	; 0x1014 <straightIntersection+0x68>
	}
	else if(c1>200)			// if sensor value is bigger than cPosition's input set's upper limit
    1000:	89 3c       	cpi	r24, 0xC9	; 201
    1002:	91 05       	cpc	r25, r1
    1004:	2c f0       	brlt	.+10     	; 0x1010 <straightIntersection+0x64>
	{
		cPosition.value = 200;  // force input value to lowest point in cPosition's input set
    1006:	88 ec       	ldi	r24, 0xC8	; 200
    1008:	90 e0       	ldi	r25, 0x00	; 0
    100a:	9c 87       	std	Y+12, r25	; 0x0c
    100c:	8b 87       	std	Y+11, r24	; 0x0b
    100e:	02 c0       	rjmp	.+4      	; 0x1014 <straightIntersection+0x68>
	}
	else
	{
		cPosition.value = c1;
    1010:	9c 87       	std	Y+12, r25	; 0x0c
    1012:	8b 87       	std	Y+11, r24	; 0x0b
	}
	struct mf_type cRight;
	MATLAB_MF(&cRight, "cRight", 49, 50, 80, 100); // Min_value = 160
    1014:	5e 01       	movw	r10, r28
    1016:	21 e1       	ldi	r18, 0x11	; 17
    1018:	a2 0e       	add	r10, r18
    101a:	b1 1c       	adc	r11, r1
    101c:	0f 2e       	mov	r0, r31
    101e:	f4 e6       	ldi	r31, 0x64	; 100
    1020:	ef 2e       	mov	r14, r31
    1022:	f1 2c       	mov	r15, r1
    1024:	f0 2d       	mov	r31, r0
    1026:	00 e5       	ldi	r16, 0x50	; 80
    1028:	10 e0       	ldi	r17, 0x00	; 0
    102a:	22 e3       	ldi	r18, 0x32	; 50
    102c:	30 e0       	ldi	r19, 0x00	; 0
    102e:	41 e3       	ldi	r20, 0x31	; 49
    1030:	50 e0       	ldi	r21, 0x00	; 0
    1032:	64 e8       	ldi	r22, 0x84	; 132
    1034:	71 e0       	ldi	r23, 0x01	; 1
    1036:	c5 01       	movw	r24, r10
    1038:	87 df       	rcall	.-242    	; 0xf48 <MATLAB_MF>
	struct mf_type centre;
	MATLAB_MF(&centre, "centre", 80, 120, 120, 160);
    103a:	6e 01       	movw	r12, r28
    103c:	47 e2       	ldi	r20, 0x27	; 39
    103e:	c4 0e       	add	r12, r20
    1040:	d1 1c       	adc	r13, r1
    1042:	0f 2e       	mov	r0, r31
    1044:	f0 ea       	ldi	r31, 0xA0	; 160
    1046:	ef 2e       	mov	r14, r31
    1048:	f1 2c       	mov	r15, r1
    104a:	f0 2d       	mov	r31, r0
    104c:	08 e7       	ldi	r16, 0x78	; 120
    104e:	10 e0       	ldi	r17, 0x00	; 0
    1050:	28 e7       	ldi	r18, 0x78	; 120
    1052:	30 e0       	ldi	r19, 0x00	; 0
    1054:	40 e5       	ldi	r20, 0x50	; 80
    1056:	50 e0       	ldi	r21, 0x00	; 0
    1058:	6b e8       	ldi	r22, 0x8B	; 139
    105a:	71 e0       	ldi	r23, 0x01	; 1
    105c:	c6 01       	movw	r24, r12
    105e:	74 df       	rcall	.-280    	; 0xf48 <MATLAB_MF>
	struct mf_type cLeft;
	MATLAB_MF(&cLeft, "cLeft", 140, 180, 200, 201); // Max_value = 370
    1060:	2e 01       	movw	r4, r28
    1062:	8d e3       	ldi	r24, 0x3D	; 61
    1064:	48 0e       	add	r4, r24
    1066:	51 1c       	adc	r5, r1
    1068:	0f 2e       	mov	r0, r31
    106a:	f9 ec       	ldi	r31, 0xC9	; 201
    106c:	ef 2e       	mov	r14, r31
    106e:	f1 2c       	mov	r15, r1
    1070:	f0 2d       	mov	r31, r0
    1072:	08 ec       	ldi	r16, 0xC8	; 200
    1074:	10 e0       	ldi	r17, 0x00	; 0
    1076:	24 eb       	ldi	r18, 0xB4	; 180
    1078:	30 e0       	ldi	r19, 0x00	; 0
    107a:	4c e8       	ldi	r20, 0x8C	; 140
    107c:	50 e0       	ldi	r21, 0x00	; 0
    107e:	62 e9       	ldi	r22, 0x92	; 146
    1080:	71 e0       	ldi	r23, 0x01	; 1
    1082:	c2 01       	movw	r24, r4
    1084:	61 df       	rcall	.-318    	; 0xf48 <MATLAB_MF>


	cPosition.membership_functions = &cRight;
    1086:	be 86       	std	Y+14, r11	; 0x0e
    1088:	ad 86       	std	Y+13, r10	; 0x0d
	cRight.next = &centre;
    108a:	de a2       	std	Y+38, r13	; 0x26
    108c:	cd a2       	std	Y+37, r12	; 0x25
	centre.next = &cLeft;
    108e:	5c ae       	std	Y+60, r5	; 0x3c
    1090:	4b ae       	std	Y+59, r4	; 0x3b
	cLeft.next = NULL;
    1092:	63 96       	adiw	r28, 0x13	; 19
    1094:	1f ae       	std	Y+63, r1	; 0x3f
    1096:	1e ae       	std	Y+62, r1	; 0x3e
    1098:	63 97       	sbiw	r28, 0x13	; 19

	
	///// DECLARATION OF STEERING OUTPUT VARIABLE ///////////////////////////////////
	//
	struct io_type steering; strcpy(steering.name, "steering"); // All outputs downscaled by a factor 10
    109a:	6e 01       	movw	r12, r28
    109c:	e3 e5       	ldi	r30, 0x53	; 83
    109e:	ce 0e       	add	r12, r30
    10a0:	d1 1c       	adc	r13, r1
    10a2:	89 e0       	ldi	r24, 0x09	; 9
    10a4:	e9 e0       	ldi	r30, 0x09	; 9
    10a6:	f1 e0       	ldi	r31, 0x01	; 1
    10a8:	d6 01       	movw	r26, r12
    10aa:	01 90       	ld	r0, Z+
    10ac:	0d 92       	st	X+, r0
    10ae:	8a 95       	dec	r24
    10b0:	e1 f7       	brne	.-8      	; 0x10aa <straightIntersection+0xfe>

	struct mf_type left;
	MATLAB_MF(&left, "left", 246, 251, 251, 255);           // TODO: needs to be tuned
    10b2:	3e 01       	movw	r6, r28
    10b4:	f3 e6       	ldi	r31, 0x63	; 99
    10b6:	6f 0e       	add	r6, r31
    10b8:	71 1c       	adc	r7, r1
    10ba:	ee 24       	eor	r14, r14
    10bc:	ea 94       	dec	r14
    10be:	f1 2c       	mov	r15, r1
    10c0:	0b ef       	ldi	r16, 0xFB	; 251
    10c2:	10 e0       	ldi	r17, 0x00	; 0
    10c4:	2b ef       	ldi	r18, 0xFB	; 251
    10c6:	30 e0       	ldi	r19, 0x00	; 0
    10c8:	46 ef       	ldi	r20, 0xF6	; 246
    10ca:	50 e0       	ldi	r21, 0x00	; 0
    10cc:	60 e2       	ldi	r22, 0x20	; 32
    10ce:	71 e0       	ldi	r23, 0x01	; 1
    10d0:	c3 01       	movw	r24, r6
    10d2:	3a df       	rcall	.-396    	; 0xf48 <MATLAB_MF>
	struct mf_type straight;
	MATLAB_MF(&straight, "straight", 253, 259, 259, 265);
    10d4:	5e 01       	movw	r10, r28
    10d6:	29 e7       	ldi	r18, 0x79	; 121
    10d8:	a2 0e       	add	r10, r18
    10da:	b1 1c       	adc	r11, r1
    10dc:	0f 2e       	mov	r0, r31
    10de:	f9 e0       	ldi	r31, 0x09	; 9
    10e0:	ef 2e       	mov	r14, r31
    10e2:	ff 24       	eor	r15, r15
    10e4:	f3 94       	inc	r15
    10e6:	f0 2d       	mov	r31, r0
    10e8:	03 e0       	ldi	r16, 0x03	; 3
    10ea:	11 e0       	ldi	r17, 0x01	; 1
    10ec:	23 e0       	ldi	r18, 0x03	; 3
    10ee:	31 e0       	ldi	r19, 0x01	; 1
    10f0:	4d ef       	ldi	r20, 0xFD	; 253
    10f2:	50 e0       	ldi	r21, 0x00	; 0
    10f4:	65 e2       	ldi	r22, 0x25	; 37
    10f6:	71 e0       	ldi	r23, 0x01	; 1
    10f8:	c5 01       	movw	r24, r10
    10fa:	26 df       	rcall	.-436    	; 0xf48 <MATLAB_MF>
	struct mf_type right;
	MATLAB_MF(&right, "right", 262, 267, 267, 272);         // TODO: needs to be tuned
    10fc:	4e 01       	movw	r8, r28
    10fe:	4f e8       	ldi	r20, 0x8F	; 143
    1100:	84 0e       	add	r8, r20
    1102:	91 1c       	adc	r9, r1
    1104:	68 94       	set
    1106:	ee 24       	eor	r14, r14
    1108:	e4 f8       	bld	r14, 4
    110a:	ff 24       	eor	r15, r15
    110c:	f3 94       	inc	r15
    110e:	0b e0       	ldi	r16, 0x0B	; 11
    1110:	11 e0       	ldi	r17, 0x01	; 1
    1112:	2b e0       	ldi	r18, 0x0B	; 11
    1114:	31 e0       	ldi	r19, 0x01	; 1
    1116:	46 e0       	ldi	r20, 0x06	; 6
    1118:	51 e0       	ldi	r21, 0x01	; 1
    111a:	6e e2       	ldi	r22, 0x2E	; 46
    111c:	71 e0       	ldi	r23, 0x01	; 1
    111e:	c4 01       	movw	r24, r8
    1120:	13 df       	rcall	.-474    	; 0xf48 <MATLAB_MF>


	steering.membership_functions = &right;
    1122:	f6 01       	movw	r30, r12
    1124:	95 86       	std	Z+13, r9	; 0x0d
    1126:	84 86       	std	Z+12, r8	; 0x0c
	right.next = &straight;
    1128:	f4 01       	movw	r30, r8
    112a:	b5 8a       	std	Z+21, r11	; 0x15
    112c:	a4 8a       	std	Z+20, r10	; 0x14
	straight.next = &left;
    112e:	f5 01       	movw	r30, r10
    1130:	75 8a       	std	Z+21, r7	; 0x15
    1132:	64 8a       	std	Z+20, r6	; 0x14
	left.next = NULL;
    1134:	f3 01       	movw	r30, r6
    1136:	15 8a       	std	Z+21, r1	; 0x15
    1138:	14 8a       	std	Z+20, r1	; 0x14



	// pointers to top of lists
	//
	System_Inputs = &cPosition;
    113a:	ce 01       	movw	r24, r28
    113c:	01 96       	adiw	r24, 0x01	; 1
    113e:	90 93 1d 03 	sts	0x031D, r25
    1142:	80 93 1c 03 	sts	0x031C, r24
	cPosition.next = NULL;
    1146:	18 8a       	std	Y+16, r1	; 0x10
    1148:	1f 86       	std	Y+15, r1	; 0x0f
	System_Outputs = &steering;
    114a:	d0 92 1b 03 	sts	0x031B, r13
    114e:	c0 92 1a 03 	sts	0x031A, r12
	steering.next = NULL;
    1152:	f6 01       	movw	r30, r12
    1154:	17 86       	std	Z+15, r1	; 0x0f
    1156:	16 86       	std	Z+14, r1	; 0x0e


	struct rule_type rule1; Rule_Base = &rule1;
    1158:	8c 55       	subi	r24, 0x5C	; 92
    115a:	9f 4f       	sbci	r25, 0xFF	; 255
    115c:	90 93 1f 03 	sts	0x031F, r25
    1160:	80 93 1e 03 	sts	0x031E, r24
	struct rule_type rule2; rule1.next = &rule2;
    1164:	de 01       	movw	r26, r28
    1166:	a5 55       	subi	r26, 0x55	; 85
    1168:	bf 4f       	sbci	r27, 0xFF	; 255
    116a:	fc 01       	movw	r30, r24
    116c:	b5 83       	std	Z+5, r27	; 0x05
    116e:	a4 83       	std	Z+4, r26	; 0x04
	struct rule_type rule3; rule2.next = &rule3; rule3.next = NULL;
    1170:	be 01       	movw	r22, r28
    1172:	6f 54       	subi	r22, 0x4F	; 79
    1174:	7f 4f       	sbci	r23, 0xFF	; 255
    1176:	15 96       	adiw	r26, 0x05	; 5
    1178:	7c 93       	st	X, r23
    117a:	6e 93       	st	-X, r22
    117c:	14 97       	sbiw	r26, 0x04	; 4
    117e:	fb 01       	movw	r30, r22
    1180:	15 82       	std	Z+5, r1	; 0x05
    1182:	14 82       	std	Z+4, r1	; 0x04
	// RULE SETUP
	//////////////////////////////////////////////////////////////////////////////

	////RULE 1 "if cPosition is cRight then steering is left"
	struct rule_element_type if11, then1;
	rule1.if_side = &if11; if11.next = NULL; rule1.then_side = &then1; then1.next = NULL;
    1184:	ae 01       	movw	r20, r28
    1186:	49 54       	subi	r20, 0x49	; 73
    1188:	5f 4f       	sbci	r21, 0xFF	; 255
    118a:	fc 01       	movw	r30, r24
    118c:	51 83       	std	Z+1, r21	; 0x01
    118e:	40 83       	st	Z, r20
    1190:	fa 01       	movw	r30, r20
    1192:	13 82       	std	Z+3, r1	; 0x03
    1194:	12 82       	std	Z+2, r1	; 0x02
    1196:	9e 01       	movw	r18, r28
    1198:	25 54       	subi	r18, 0x45	; 69
    119a:	3f 4f       	sbci	r19, 0xFF	; 255
    119c:	fc 01       	movw	r30, r24
    119e:	33 83       	std	Z+3, r19	; 0x03
    11a0:	22 83       	std	Z+2, r18	; 0x02
    11a2:	f9 01       	movw	r30, r18
    11a4:	13 82       	std	Z+3, r1	; 0x03
    11a6:	12 82       	std	Z+2, r1	; 0x02
	if11.value = &cRight.value; then1.value = &left.value;
    11a8:	8a 58       	subi	r24, 0x8A	; 138
    11aa:	91 09       	sbc	r25, r1
    11ac:	fa 01       	movw	r30, r20
    11ae:	91 83       	std	Z+1, r25	; 0x01
    11b0:	80 83       	st	Z, r24
    11b2:	fa e0       	ldi	r31, 0x0A	; 10
    11b4:	6f 0e       	add	r6, r31
    11b6:	71 1c       	adc	r7, r1
    11b8:	f9 01       	movw	r30, r18
    11ba:	71 82       	std	Z+1, r7	; 0x01
    11bc:	60 82       	st	Z, r6

	////RULE 2 "if cPosition is cLeft then steering is right"
	struct rule_element_type if21, then2;
	rule2.if_side = &if21; if21.next = NULL; rule2.then_side = &then2; then2.next = NULL;
    11be:	2c 5f       	subi	r18, 0xFC	; 252
    11c0:	3f 4f       	sbci	r19, 0xFF	; 255
    11c2:	11 96       	adiw	r26, 0x01	; 1
    11c4:	3c 93       	st	X, r19
    11c6:	2e 93       	st	-X, r18
    11c8:	f9 01       	movw	r30, r18
    11ca:	13 82       	std	Z+3, r1	; 0x03
    11cc:	12 82       	std	Z+2, r1	; 0x02
    11ce:	88 55       	subi	r24, 0x58	; 88
    11d0:	9f 4f       	sbci	r25, 0xFF	; 255
    11d2:	13 96       	adiw	r26, 0x03	; 3
    11d4:	9c 93       	st	X, r25
    11d6:	8e 93       	st	-X, r24
    11d8:	12 97       	sbiw	r26, 0x02	; 2
    11da:	fc 01       	movw	r30, r24
    11dc:	13 82       	std	Z+3, r1	; 0x03
    11de:	12 82       	std	Z+2, r1	; 0x02
	if21.value = &cLeft.value; then2.value = &right.value;
    11e0:	fa e0       	ldi	r31, 0x0A	; 10
    11e2:	4f 0e       	add	r4, r31
    11e4:	51 1c       	adc	r5, r1
    11e6:	f9 01       	movw	r30, r18
    11e8:	51 82       	std	Z+1, r5	; 0x01
    11ea:	40 82       	st	Z, r4
    11ec:	fa e0       	ldi	r31, 0x0A	; 10
    11ee:	8f 0e       	add	r8, r31
    11f0:	91 1c       	adc	r9, r1
    11f2:	fc 01       	movw	r30, r24
    11f4:	91 82       	std	Z+1, r9	; 0x01
    11f6:	80 82       	st	Z, r8

	////RULE 3 "if cPosition is centre and vOrientation is rightOriented then steering is left"
	struct rule_element_type if31, then3;
	rule3.if_side = &if31; if31.next = NULL; rule3.then_side = &then3; then3.next = NULL;
    11f8:	04 96       	adiw	r24, 0x04	; 4
    11fa:	fb 01       	movw	r30, r22
    11fc:	91 83       	std	Z+1, r25	; 0x01
    11fe:	80 83       	st	Z, r24
    1200:	fc 01       	movw	r30, r24
    1202:	13 82       	std	Z+3, r1	; 0x03
    1204:	12 82       	std	Z+2, r1	; 0x02
    1206:	90 96       	adiw	r26, 0x20	; 32
    1208:	fb 01       	movw	r30, r22
    120a:	b3 83       	std	Z+3, r27	; 0x03
    120c:	a2 83       	std	Z+2, r26	; 0x02
    120e:	13 96       	adiw	r26, 0x03	; 3
    1210:	1c 92       	st	X, r1
    1212:	1e 92       	st	-X, r1
    1214:	12 97       	sbiw	r26, 0x02	; 2
	if31.value = &centre.value; then3.value = &straight.value;
    1216:	2e 58       	subi	r18, 0x8E	; 142
    1218:	31 09       	sbc	r19, r1
    121a:	fc 01       	movw	r30, r24
    121c:	31 83       	std	Z+1, r19	; 0x01
    121e:	20 83       	st	Z, r18
    1220:	fa e0       	ldi	r31, 0x0A	; 10
    1222:	af 0e       	add	r10, r31
    1224:	b1 1c       	adc	r11, r1
    1226:	ad 92       	st	X+, r10
    1228:	bc 92       	st	X, r11


	// the methods performing the FLC
	fuzzification();
    122a:	5b dd       	rcall	.-1354   	; 0xce2 <fuzzification>
	rule_evaluation();
    122c:	81 dd       	rcall	.-1278   	; 0xd30 <rule_evaluation>
	defuzzification();
    122e:	c6 dd       	rcall	.-1140   	; 0xdbc <defuzzification>
	
	steering.value = steering.value*10;
    1230:	f6 01       	movw	r30, r12
    1232:	22 85       	ldd	r18, Z+10	; 0x0a
    1234:	33 85       	ldd	r19, Z+11	; 0x0b
    1236:	c9 01       	movw	r24, r18
    1238:	88 0f       	add	r24, r24
    123a:	99 1f       	adc	r25, r25
    123c:	22 0f       	add	r18, r18
    123e:	33 1f       	adc	r19, r19
    1240:	22 0f       	add	r18, r18
    1242:	33 1f       	adc	r19, r19
    1244:	22 0f       	add	r18, r18
    1246:	33 1f       	adc	r19, r19
    1248:	82 0f       	add	r24, r18
    124a:	93 1f       	adc	r25, r19
    124c:	93 87       	std	Z+11, r25	; 0x0b
    124e:	82 87       	std	Z+10, r24	; 0x0a
	if (steering.value < MAXLEFT)
    1250:	86 3e       	cpi	r24, 0xE6	; 230
    1252:	f7 e0       	ldi	r31, 0x07	; 7
    1254:	9f 07       	cpc	r25, r31
    1256:	24 f4       	brge	.+8      	; 0x1260 <straightIntersection+0x2b4>
	{
		setServo(MAXLEFT);
    1258:	86 ee       	ldi	r24, 0xE6	; 230
    125a:	97 e0       	ldi	r25, 0x07	; 7
    125c:	d2 d4       	rcall	.+2468   	; 0x1c02 <setServo>
    125e:	09 c0       	rjmp	.+18     	; 0x1272 <straightIntersection+0x2c6>
	}
	else if (steering.value >MAXRIGHT)
    1260:	85 3e       	cpi	r24, 0xE5	; 229
    1262:	2c e0       	ldi	r18, 0x0C	; 12
    1264:	92 07       	cpc	r25, r18
    1266:	24 f0       	brlt	.+8      	; 0x1270 <straightIntersection+0x2c4>
	{
		setServo(MAXRIGHT);
    1268:	84 ee       	ldi	r24, 0xE4	; 228
    126a:	9c e0       	ldi	r25, 0x0C	; 12
    126c:	ca d4       	rcall	.+2452   	; 0x1c02 <setServo>
    126e:	01 c0       	rjmp	.+2      	; 0x1272 <straightIntersection+0x2c6>
	}
	else
	{
		setServo(steering.value);
    1270:	c8 d4       	rcall	.+2448   	; 0x1c02 <setServo>
	}

}
    1272:	c2 53       	subi	r28, 0x32	; 50
    1274:	df 4f       	sbci	r29, 0xFF	; 255
    1276:	0f b6       	in	r0, 0x3f	; 63
    1278:	f8 94       	cli
    127a:	de bf       	out	0x3e, r29	; 62
    127c:	0f be       	out	0x3f, r0	; 63
    127e:	cd bf       	out	0x3d, r28	; 61
    1280:	df 91       	pop	r29
    1282:	cf 91       	pop	r28
    1284:	1f 91       	pop	r17
    1286:	0f 91       	pop	r16
    1288:	ff 90       	pop	r15
    128a:	ef 90       	pop	r14
    128c:	df 90       	pop	r13
    128e:	cf 90       	pop	r12
    1290:	bf 90       	pop	r11
    1292:	af 90       	pop	r10
    1294:	9f 90       	pop	r9
    1296:	8f 90       	pop	r8
    1298:	7f 90       	pop	r7
    129a:	6f 90       	pop	r6
    129c:	5f 90       	pop	r5
    129e:	4f 90       	pop	r4
    12a0:	08 95       	ret

000012a2 <intersection>:


void intersection(int gyro, unsigned char type, int c, int v)
{
	if (gyro<0)
    12a2:	99 23       	and	r25, r25
    12a4:	24 f4       	brge	.+8      	; 0x12ae <intersection+0xc>
	{
		gyro = -gyro;
    12a6:	91 95       	neg	r25
    12a8:	81 95       	neg	r24
    12aa:	91 09       	sbc	r25, r1
    12ac:	05 c0       	rjmp	.+10     	; 0x12b8 <intersection+0x16>
    12ae:	8e 37       	cpi	r24, 0x7E	; 126
    12b0:	91 05       	cpc	r25, r1
    12b2:	14 f0       	brlt	.+4      	; 0x12b8 <intersection+0x16>
    12b4:	8d e7       	ldi	r24, 0x7D	; 125
    12b6:	90 e0       	ldi	r25, 0x00	; 0
	{
		gyro = maxGyro;
	}
	
	
	if (type == 'r')
    12b8:	62 37       	cpi	r22, 0x72	; 114
    12ba:	51 f4       	brne	.+20     	; 0x12d0 <intersection+0x2e>
	{
		// rightTurn(gyro);
		if (gyro<25)
    12bc:	49 97       	sbiw	r24, 0x19	; 25
    12be:	24 f4       	brge	.+8      	; 0x12c8 <intersection+0x26>
		{
			setServo(MAXRIGHT-400);
    12c0:	84 e5       	ldi	r24, 0x54	; 84
    12c2:	9b e0       	ldi	r25, 0x0B	; 11
    12c4:	9e c4       	rjmp	.+2364   	; 0x1c02 <setServo>
    12c6:	08 95       	ret
		}
		else
		{
			setServo(MAXRIGHT); // maxright-180
    12c8:	84 ee       	ldi	r24, 0xE4	; 228
    12ca:	9c e0       	ldi	r25, 0x0C	; 12
    12cc:	9a c4       	rjmp	.+2356   	; 0x1c02 <setServo>
    12ce:	08 95       	ret
		}
	}
	else if (type == 'l')
    12d0:	6c 36       	cpi	r22, 0x6C	; 108
    12d2:	51 f4       	brne	.+20     	; 0x12e8 <intersection+0x46>
	{
		// leftTurn(gyro);               // original plan
		if (gyro < 6)                  // hard coded
    12d4:	06 97       	sbiw	r24, 0x06	; 6
    12d6:	24 f4       	brge	.+8      	; 0x12e0 <intersection+0x3e>
		{
			setServo(STRAIGHT-150);
    12d8:	88 e8       	ldi	r24, 0x88	; 136
    12da:	99 e0       	ldi	r25, 0x09	; 9
    12dc:	92 c4       	rjmp	.+2340   	; 0x1c02 <setServo>
    12de:	08 95       	ret
		}
		else
		{
			setServo(MAXLEFT);
    12e0:	86 ee       	ldi	r24, 0xE6	; 230
    12e2:	97 e0       	ldi	r25, 0x07	; 7
    12e4:	8e c4       	rjmp	.+2332   	; 0x1c02 <setServo>
    12e6:	08 95       	ret
		}
	}
	else if (type == 'F')
    12e8:	66 34       	cpi	r22, 0x46	; 70
    12ea:	61 f4       	brne	.+24     	; 0x1304 <intersection+0x62>
	{
		if (v==81 && c == 2)             // State "no left side"
    12ec:	21 35       	cpi	r18, 0x51	; 81
    12ee:	31 05       	cpc	r19, r1
    12f0:	39 f4       	brne	.+14     	; 0x1300 <intersection+0x5e>
    12f2:	42 30       	cpi	r20, 0x02	; 2
    12f4:	51 05       	cpc	r21, r1
    12f6:	21 f4       	brne	.+8      	; 0x1300 <intersection+0x5e>
		{
			setServo(STRAIGHT-300);
    12f8:	82 ef       	ldi	r24, 0xF2	; 242
    12fa:	98 e0       	ldi	r25, 0x08	; 8
    12fc:	82 c4       	rjmp	.+2308   	; 0x1c02 <setServo>
    12fe:	08 95       	ret
		}
		else
		{
			//setServo(STRAIGHT);
			straightIntersection(c);
    1300:	ca 01       	movw	r24, r20
    1302:	54 ce       	rjmp	.-856    	; 0xfac <straightIntersection>
    1304:	08 95       	ret

00001306 <carInit>:
* to allow the operator to turn on the ESC manually
* and thus set the neutral
*/
void carInit(void)
{
	pwmInit();
    1306:	53 d4       	rcall	.+2214   	; 0x1bae <pwmInit>
	spi_slave_init();
    1308:	03 d5       	rcall	.+2566   	; 0x1d10 <spi_slave_init>
	OCR1A = NEUTRAL;
    130a:	8d ec       	ldi	r24, 0xCD	; 205
    130c:	9a e0       	ldi	r25, 0x0A	; 10
    130e:	90 93 89 00 	sts	0x0089, r25
    1312:	80 93 88 00 	sts	0x0088, r24
	OCR1B = STRAIGHT;
    1316:	8e e1       	ldi	r24, 0x1E	; 30
    1318:	9a e0       	ldi	r25, 0x0A	; 10
    131a:	90 93 8b 00 	sts	0x008B, r25
    131e:	80 93 8a 00 	sts	0x008A, r24
	#else
		//round up by default
		__ticks_dc = (uint32_t)(ceil(fabs(__tmp)));
	#endif

	__builtin_avr_delay_cycles(__ticks_dc);
    1322:	2f ef       	ldi	r18, 0xFF	; 255
    1324:	8f ef       	ldi	r24, 0xFF	; 255
    1326:	90 ee       	ldi	r25, 0xE0	; 224
    1328:	21 50       	subi	r18, 0x01	; 1
    132a:	80 40       	sbci	r24, 0x00	; 0
    132c:	90 40       	sbci	r25, 0x00	; 0
    132e:	e1 f7       	brne	.-8      	; 0x1328 <carInit+0x22>
    1330:	00 c0       	rjmp	.+0      	; 0x1332 <carInit+0x2c>
    1332:	00 00       	nop
	_delay_ms(5000);
	OCR1A = 2900;
    1334:	84 e5       	ldi	r24, 0x54	; 84
    1336:	9b e0       	ldi	r25, 0x0B	; 11
    1338:	90 93 89 00 	sts	0x0089, r25
    133c:	80 93 88 00 	sts	0x0088, r24
    1340:	2f ef       	ldi	r18, 0xFF	; 255
    1342:	8f ef       	ldi	r24, 0xFF	; 255
    1344:	93 eb       	ldi	r25, 0xB3	; 179
    1346:	21 50       	subi	r18, 0x01	; 1
    1348:	80 40       	sbci	r24, 0x00	; 0
    134a:	90 40       	sbci	r25, 0x00	; 0
    134c:	e1 f7       	brne	.-8      	; 0x1346 <carInit+0x40>
    134e:	00 c0       	rjmp	.+0      	; 0x1350 <carInit+0x4a>
    1350:	00 00       	nop
	_delay_ms(4000);
	setESC(NEUTRAL);
    1352:	8d ec       	ldi	r24, 0xCD	; 205
    1354:	9a e0       	ldi	r25, 0x0A	; 10
    1356:	3a c4       	rjmp	.+2164   	; 0x1bcc <setESC>
    1358:	08 95       	ret

0000135a <main>:



//////////////// MAIN /////////////////////////////////////////////////////////////
int main (void)
{
    135a:	cf 93       	push	r28
    135c:	df 93       	push	r29
    135e:	cd b7       	in	r28, 0x3d	; 61
    1360:	de b7       	in	r29, 0x3e	; 62
    1362:	2f 97       	sbiw	r28, 0x0f	; 15
    1364:	0f b6       	in	r0, 0x3f	; 63
    1366:	f8 94       	cli
    1368:	de bf       	out	0x3e, r29	; 62
    136a:	0f be       	out	0x3f, r0	; 63
    136c:	cd bf       	out	0x3d, r28	; 61
	int man_velocity = 0;
    136e:	1a 82       	std	Y+2, r1	; 0x02
    1370:	19 82       	std	Y+1, r1	; 0x01
	int man_steering = 0;
    1372:	1c 82       	std	Y+4, r1	; 0x04
    1374:	1b 82       	std	Y+3, r1	; 0x03
	carInit();
    1376:	c7 df       	rcall	.-114    	; 0x1306 <carInit>
	volatile struct Sensor_information sensor_info;
	struct Sensor_information* sens_info_ptr;
	sens_info_ptr = &sensor_info;
	volatile unsigned char control_mode;
	unsigned char prev_control_mode;
	sei();
    1378:	78 94       	sei
	
	isParking = 0;
    137a:	10 92 18 03 	sts	0x0318, r1
			unsigned char type = (unsigned) (char) sensor_info.next_turn_decision;
			int manualInstruction = (int) sensor_info.dist_right_line;
			
			if(control_mode == 0x05 && prev_control_mode == 0x04){
				countInit(28000);
				isParking = 1;
    137e:	bb 24       	eor	r11, r11
    1380:	b3 94       	inc	r11
				}
				
				else if (control_mode == 1)
				{
					
					FLC_speed(OCR1A, sF, OCR1B);
    1382:	0f 2e       	mov	r0, r31
    1384:	fa e8       	ldi	r31, 0x8A	; 138
    1386:	cf 2e       	mov	r12, r31
    1388:	d1 2c       	mov	r13, r1
    138a:	f0 2d       	mov	r31, r0
    138c:	0f 2e       	mov	r0, r31
    138e:	f8 e8       	ldi	r31, 0x88	; 136
    1390:	ef 2e       	mov	r14, r31
    1392:	f1 2c       	mov	r15, r1
    1394:	f0 2d       	mov	r31, r0
	
	isParking = 0;
	
	while (1)
	{
		if (is_package_recieved())
    1396:	49 d5       	rcall	.+2706   	; 0x1e2a <is_package_recieved>
    1398:	88 23       	and	r24, r24
    139a:	e9 f3       	breq	.-6      	; 0x1396 <main+0x3c>
		{
			
			//Reading Information
			prev_control_mode = control_mode;
    139c:	9f 84       	ldd	r9, Y+15	; 0x0f
			read_sensor_info(&control_mode, sens_info_ptr);
    139e:	be 01       	movw	r22, r28
    13a0:	6b 5f       	subi	r22, 0xFB	; 251
    13a2:	7f 4f       	sbci	r23, 0xFF	; 255
    13a4:	ce 01       	movw	r24, r28
    13a6:	0f 96       	adiw	r24, 0x0f	; 15
    13a8:	4a d5       	rcall	.+2708   	; 0x1e3e <read_sensor_info>
			
			int sF = (int) sensor_info.dist_sonic_middle;
    13aa:	1f 81       	ldd	r17, Y+7	; 0x07
			int sB = (int) sensor_info.dist_sonic_back;
    13ac:	6a 84       	ldd	r6, Y+10	; 0x0a
			int c = (int) sensor_info.dist_right_line;
    13ae:	0d 81       	ldd	r16, Y+5	; 0x05
			int v = (int) sensor_info.angular_diff;
    13b0:	8e 80       	ldd	r8, Y+6	; 0x06
			int gyro = (int) sensor_info.angle - 125;
    13b2:	7c 84       	ldd	r7, Y+12	; 0x0c
			unsigned char type = (unsigned) (char) sensor_info.next_turn_decision;
    13b4:	8e 85       	ldd	r24, Y+14	; 0x0e
			int manualInstruction = (int) sensor_info.dist_right_line;
    13b6:	ad 80       	ldd	r10, Y+5	; 0x05
			
			if(control_mode == 0x05 && prev_control_mode == 0x04){
    13b8:	8f 85       	ldd	r24, Y+15	; 0x0f
    13ba:	85 30       	cpi	r24, 0x05	; 5
    13bc:	49 f4       	brne	.+18     	; 0x13d0 <main+0x76>
    13be:	84 e0       	ldi	r24, 0x04	; 4
    13c0:	98 12       	cpse	r9, r24
    13c2:	06 c0       	rjmp	.+12     	; 0x13d0 <main+0x76>
				countInit(28000);
    13c4:	80 e6       	ldi	r24, 0x60	; 96
    13c6:	9d e6       	ldi	r25, 0x6D	; 109
    13c8:	0e 94 77 00 	call	0xee	; 0xee <countInit>
				isParking = 1;
    13cc:	b0 92 18 03 	sts	0x0318, r11
			}
			
			cli();
    13d0:	f8 94       	cli
			
			if(!isParking)
    13d2:	80 91 18 03 	lds	r24, 0x0318
    13d6:	81 11       	cpse	r24, r1
    13d8:	3f c0       	rjmp	.+126    	; 0x1458 <main+0xfe>
			
			//Reading Information
			prev_control_mode = control_mode;
			read_sensor_info(&control_mode, sens_info_ptr);
			
			int sF = (int) sensor_info.dist_sonic_middle;
    13da:	61 2f       	mov	r22, r17
    13dc:	70 e0       	ldi	r23, 0x00	; 0
			int sB = (int) sensor_info.dist_sonic_back;
			int c = (int) sensor_info.dist_right_line;
    13de:	10 e0       	ldi	r17, 0x00	; 0
			int v = (int) sensor_info.angular_diff;
    13e0:	91 2c       	mov	r9, r1
			
			cli();
			
			if(!isParking)
			{
				if (control_mode == 0)
    13e2:	8f 85       	ldd	r24, Y+15	; 0x0f
    13e4:	81 11       	cpse	r24, r1
    13e6:	0c c0       	rjmp	.+24     	; 0x1400 <main+0xa6>
				{
					FLC_speed(OCR1A, sF, OCR1B);
    13e8:	f6 01       	movw	r30, r12
    13ea:	40 81       	ld	r20, Z
    13ec:	51 81       	ldd	r21, Z+1	; 0x01
    13ee:	f7 01       	movw	r30, r14
    13f0:	80 81       	ld	r24, Z
    13f2:	91 81       	ldd	r25, Z+1	; 0x01
    13f4:	0e 94 8b 00 	call	0x116	; 0x116 <FLC_speed>
					nFuzzySteering(c,v);
    13f8:	b4 01       	movw	r22, r8
    13fa:	c8 01       	movw	r24, r16
    13fc:	c2 d3       	rcall	.+1924   	; 0x1b82 <nFuzzySteering>
    13fe:	30 c0       	rjmp	.+96     	; 0x1460 <main+0x106>
				}
				else if (control_mode == 4)
    1400:	8f 85       	ldd	r24, Y+15	; 0x0f
    1402:	84 30       	cpi	r24, 0x04	; 4
    1404:	39 f4       	brne	.+14     	; 0x1414 <main+0xba>
				{
					setESC(NEUTRAL);
    1406:	8d ec       	ldi	r24, 0xCD	; 205
    1408:	9a e0       	ldi	r25, 0x0A	; 10
    140a:	e0 d3       	rcall	.+1984   	; 0x1bcc <setESC>
					setServo(STRAIGHT);
    140c:	8e e1       	ldi	r24, 0x1E	; 30
    140e:	9a e0       	ldi	r25, 0x0A	; 10
    1410:	f8 d3       	rcall	.+2032   	; 0x1c02 <setServo>
    1412:	26 c0       	rjmp	.+76     	; 0x1460 <main+0x106>
				}
				
				else if (control_mode == 1)
    1414:	8f 85       	ldd	r24, Y+15	; 0x0f
    1416:	81 30       	cpi	r24, 0x01	; 1
    1418:	89 f4       	brne	.+34     	; 0x143c <main+0xe2>
				{
					
					FLC_speed(OCR1A, sF, OCR1B);
    141a:	f6 01       	movw	r30, r12
    141c:	40 81       	ld	r20, Z
    141e:	51 81       	ldd	r21, Z+1	; 0x01
    1420:	f7 01       	movw	r30, r14
    1422:	80 81       	ld	r24, Z
    1424:	91 81       	ldd	r25, Z+1	; 0x01
    1426:	0e 94 8b 00 	call	0x116	; 0x116 <FLC_speed>
					intersection(gyro, sensor_info.next_turn_decision, c, v);
    142a:	6e 85       	ldd	r22, Y+14	; 0x0e
			
			int sF = (int) sensor_info.dist_sonic_middle;
			int sB = (int) sensor_info.dist_sonic_back;
			int c = (int) sensor_info.dist_right_line;
			int v = (int) sensor_info.angular_diff;
			int gyro = (int) sensor_info.angle - 125;
    142c:	87 2d       	mov	r24, r7
    142e:	90 e0       	ldi	r25, 0x00	; 0
				
				else if (control_mode == 1)
				{
					
					FLC_speed(OCR1A, sF, OCR1B);
					intersection(gyro, sensor_info.next_turn_decision, c, v);
    1430:	94 01       	movw	r18, r8
    1432:	a8 01       	movw	r20, r16
    1434:	8d 57       	subi	r24, 0x7D	; 125
    1436:	91 09       	sbc	r25, r1
    1438:	34 df       	rcall	.-408    	; 0x12a2 <intersection>
    143a:	12 c0       	rjmp	.+36     	; 0x1460 <main+0x106>
				}
				else if (control_mode == 6)
    143c:	8f 85       	ldd	r24, Y+15	; 0x0f
    143e:	86 30       	cpi	r24, 0x06	; 6
    1440:	79 f4       	brne	.+30     	; 0x1460 <main+0x106>
			//Reading Information
			prev_control_mode = control_mode;
			read_sensor_info(&control_mode, sens_info_ptr);
			
			int sF = (int) sensor_info.dist_sonic_middle;
			int sB = (int) sensor_info.dist_sonic_back;
    1442:	46 2d       	mov	r20, r6
    1444:	50 e0       	ldi	r21, 0x00	; 0
					FLC_speed(OCR1A, sF, OCR1B);
					intersection(gyro, sensor_info.next_turn_decision, c, v);
				}
				else if (control_mode == 6)
				{
					manualMode(manualInstruction, sF, sB, &man_velocity, &man_steering);
    1446:	8e 01       	movw	r16, r28
    1448:	0d 5f       	subi	r16, 0xFD	; 253
    144a:	1f 4f       	sbci	r17, 0xFF	; 255
    144c:	9e 01       	movw	r18, r28
    144e:	2f 5f       	subi	r18, 0xFF	; 255
    1450:	3f 4f       	sbci	r19, 0xFF	; 255
    1452:	8a 2d       	mov	r24, r10
    1454:	15 d0       	rcall	.+42     	; 0x1480 <manualMode>
    1456:	04 c0       	rjmp	.+8      	; 0x1460 <main+0x106>
				}
			}
			else if (isParking)
    1458:	80 91 18 03 	lds	r24, 0x0318
    145c:	81 11       	cpse	r24, r1
			{
				stop();
    145e:	31 d5       	rcall	.+2658   	; 0x1ec2 <stop>
			}

			
			sei();
    1460:	78 94       	sei
			
			//Sending back information
			unsigned int esc_value_to_send;
			esc_value_to_send = OCR1A;
    1462:	f7 01       	movw	r30, r14
    1464:	80 81       	ld	r24, Z
    1466:	91 81       	ldd	r25, Z+1	; 0x01
			unsigned int steering_value_to_send;
			steering_value_to_send = OCR1B;
    1468:	f6 01       	movw	r30, r12
    146a:	80 81       	ld	r24, Z
    146c:	91 81       	ldd	r25, Z+1	; 0x01
			//Big endian
			unsigned int temp_ESC;
			temp_ESC = (esc_value_to_send<<8) & 0xFF;
			unsigned int temp_steering;
			temp_steering = (steering_value_to_send<<8) & 0xFF;
			spi_send_byte(0x05);
    146e:	85 e0       	ldi	r24, 0x05	; 5
    1470:	85 d4       	rcall	.+2314   	; 0x1d7c <spi_send_byte>
			spi_send_byte(0x06);
    1472:	86 e0       	ldi	r24, 0x06	; 6
    1474:	83 d4       	rcall	.+2310   	; 0x1d7c <spi_send_byte>
			spi_send_byte(0x07);
    1476:	87 e0       	ldi	r24, 0x07	; 7
    1478:	81 d4       	rcall	.+2306   	; 0x1d7c <spi_send_byte>
			spi_send_byte(0x08);
    147a:	88 e0       	ldi	r24, 0x08	; 8
    147c:	7f d4       	rcall	.+2302   	; 0x1d7c <spi_send_byte>
    147e:	8b cf       	rjmp	.-234    	; 0x1396 <main+0x3c>

00001480 <manualMode>:
 * This method performs the manual mode of driving
 * The manual instructions are forward, left, right, reverse stored in array manualInstruction
 *
 */
void manualMode(char manualInstructions, int sF, int sB, int* man_velocity, int* man_steering)
{
    1480:	0f 93       	push	r16
    1482:	1f 93       	push	r17
    1484:	cf 93       	push	r28
    1486:	df 93       	push	r29
    1488:	e9 01       	movw	r28, r18
	cli(); //disable interrupts	
    148a:	f8 94       	cli
	
	if (manualInstructions & (1<<4))
    148c:	84 ff       	sbrs	r24, 4
    148e:	06 c0       	rjmp	.+12     	; 0x149c <manualMode+0x1c>
	{
		*man_velocity = *man_velocity +  5;
    1490:	28 81       	ld	r18, Y
    1492:	39 81       	ldd	r19, Y+1	; 0x01
    1494:	2b 5f       	subi	r18, 0xFB	; 251
    1496:	3f 4f       	sbci	r19, 0xFF	; 255
    1498:	39 83       	std	Y+1, r19	; 0x01
    149a:	28 83       	st	Y, r18
	} 
	if (manualInstructions & (1<<5))
    149c:	85 ff       	sbrs	r24, 5
    149e:	06 c0       	rjmp	.+12     	; 0x14ac <manualMode+0x2c>
	{
		*man_velocity = *man_velocity - 5;
    14a0:	28 81       	ld	r18, Y
    14a2:	39 81       	ldd	r19, Y+1	; 0x01
    14a4:	25 50       	subi	r18, 0x05	; 5
    14a6:	31 09       	sbc	r19, r1
    14a8:	39 83       	std	Y+1, r19	; 0x01
    14aa:	28 83       	st	Y, r18
	}
	if (manualInstructions & (1<<0))
    14ac:	80 ff       	sbrs	r24, 0
    14ae:	07 c0       	rjmp	.+14     	; 0x14be <manualMode+0x3e>
	{
		*man_steering = *man_steering - 100;
    14b0:	f8 01       	movw	r30, r16
    14b2:	20 81       	ld	r18, Z
    14b4:	31 81       	ldd	r19, Z+1	; 0x01
    14b6:	24 56       	subi	r18, 0x64	; 100
    14b8:	31 09       	sbc	r19, r1
    14ba:	31 83       	std	Z+1, r19	; 0x01
    14bc:	20 83       	st	Z, r18
	}
	if (manualInstructions & (1<<1))
    14be:	81 ff       	sbrs	r24, 1
    14c0:	07 c0       	rjmp	.+14     	; 0x14d0 <manualMode+0x50>
	{
		*man_steering = *man_steering + 100;
    14c2:	f8 01       	movw	r30, r16
    14c4:	20 81       	ld	r18, Z
    14c6:	31 81       	ldd	r19, Z+1	; 0x01
    14c8:	2c 59       	subi	r18, 0x9C	; 156
    14ca:	3f 4f       	sbci	r19, 0xFF	; 255
    14cc:	31 83       	std	Z+1, r19	; 0x01
    14ce:	20 83       	st	Z, r18
	}
	if (manualInstructions & (1<<2))
    14d0:	82 ff       	sbrs	r24, 2
    14d2:	03 c0       	rjmp	.+6      	; 0x14da <manualMode+0x5a>
	{
		*man_steering = 0;
    14d4:	f8 01       	movw	r30, r16
    14d6:	11 82       	std	Z+1, r1	; 0x01
    14d8:	10 82       	st	Z, r1
	}
	if (manualInstructions & (1<<3))
    14da:	83 ff       	sbrs	r24, 3
    14dc:	05 c0       	rjmp	.+10     	; 0x14e8 <manualMode+0x68>
	{
		*man_steering = 0;
    14de:	f8 01       	movw	r30, r16
    14e0:	11 82       	std	Z+1, r1	; 0x01
    14e2:	10 82       	st	Z, r1
		*man_velocity = 0;
    14e4:	19 82       	std	Y+1, r1	; 0x01
    14e6:	18 82       	st	Y, r1
	}
	
	if (sF<30 && (*man_velocity > 0))
    14e8:	6e 31       	cpi	r22, 0x1E	; 30
    14ea:	71 05       	cpc	r23, r1
    14ec:	5c f4       	brge	.+22     	; 0x1504 <manualMode+0x84>
    14ee:	88 81       	ld	r24, Y
    14f0:	99 81       	ldd	r25, Y+1	; 0x01
    14f2:	18 16       	cp	r1, r24
    14f4:	19 06       	cpc	r1, r25
    14f6:	34 f4       	brge	.+12     	; 0x1504 <manualMode+0x84>
	{
		setESC(NEUTRAL);
    14f8:	8d ec       	ldi	r24, 0xCD	; 205
    14fa:	9a e0       	ldi	r25, 0x0A	; 10
    14fc:	67 d3       	rcall	.+1742   	; 0x1bcc <setESC>
		*man_velocity = 0;
    14fe:	19 82       	std	Y+1, r1	; 0x01
    1500:	18 82       	st	Y, r1
    1502:	12 c0       	rjmp	.+36     	; 0x1528 <manualMode+0xa8>
	} 
	else if(sB<30 && (*man_velocity < 0))
    1504:	4e 31       	cpi	r20, 0x1E	; 30
    1506:	51 05       	cpc	r21, r1
    1508:	54 f4       	brge	.+20     	; 0x151e <manualMode+0x9e>
    150a:	88 81       	ld	r24, Y
    150c:	99 81       	ldd	r25, Y+1	; 0x01
    150e:	99 23       	and	r25, r25
    1510:	34 f4       	brge	.+12     	; 0x151e <manualMode+0x9e>
	{
		setESC(NEUTRAL);
    1512:	8d ec       	ldi	r24, 0xCD	; 205
    1514:	9a e0       	ldi	r25, 0x0A	; 10
    1516:	5a d3       	rcall	.+1716   	; 0x1bcc <setESC>
		*man_velocity = 0;
    1518:	19 82       	std	Y+1, r1	; 0x01
    151a:	18 82       	st	Y, r1
    151c:	05 c0       	rjmp	.+10     	; 0x1528 <manualMode+0xa8>
	}
	else
	{
		setESC(NEUTRAL + *man_velocity);	
    151e:	88 81       	ld	r24, Y
    1520:	99 81       	ldd	r25, Y+1	; 0x01
    1522:	83 53       	subi	r24, 0x33	; 51
    1524:	95 4f       	sbci	r25, 0xF5	; 245
    1526:	52 d3       	rcall	.+1700   	; 0x1bcc <setESC>
	}
	
	setServo(STRAIGHT + *man_steering);
    1528:	f8 01       	movw	r30, r16
    152a:	80 81       	ld	r24, Z
    152c:	91 81       	ldd	r25, Z+1	; 0x01
    152e:	82 5e       	subi	r24, 0xE2	; 226
    1530:	95 4f       	sbci	r25, 0xF5	; 245
    1532:	67 d3       	rcall	.+1742   	; 0x1c02 <setServo>
	
    1534:	df 91       	pop	r29
    1536:	cf 91       	pop	r28
    1538:	1f 91       	pop	r17
    153a:	0f 91       	pop	r16
    153c:	08 95       	ret

0000153e <nDoFuzzy>:
//////////////////////////////////////////////////////////////////////////////////
// METHODS                                                                      //
//////////////////////////////////////////////////////////////////////////////////

void nDoFuzzy(int c, int v)
{      
    153e:	2f 92       	push	r2
    1540:	3f 92       	push	r3
    1542:	4f 92       	push	r4
    1544:	5f 92       	push	r5
    1546:	6f 92       	push	r6
    1548:	7f 92       	push	r7
    154a:	8f 92       	push	r8
    154c:	9f 92       	push	r9
    154e:	af 92       	push	r10
    1550:	bf 92       	push	r11
    1552:	cf 92       	push	r12
    1554:	df 92       	push	r13
    1556:	ef 92       	push	r14
    1558:	ff 92       	push	r15
    155a:	0f 93       	push	r16
    155c:	1f 93       	push	r17
    155e:	cf 93       	push	r28
    1560:	df 93       	push	r29
    1562:	cd b7       	in	r28, 0x3d	; 61
    1564:	de b7       	in	r29, 0x3e	; 62
    1566:	ce 5b       	subi	r28, 0xBE	; 190
    1568:	d1 40       	sbci	r29, 0x01	; 1
    156a:	0f b6       	in	r0, 0x3f	; 63
    156c:	f8 94       	cli
    156e:	de bf       	out	0x3e, r29	; 62
    1570:	0f be       	out	0x3f, r0	; 63
    1572:	cd bf       	out	0x3d, r28	; 61
    1574:	c3 54       	subi	r28, 0x43	; 67
    1576:	de 4f       	sbci	r29, 0xFE	; 254
    1578:	99 83       	std	Y+1, r25	; 0x01
    157a:	88 83       	st	Y, r24
    157c:	cd 5b       	subi	r28, 0xBD	; 189
    157e:	d1 40       	sbci	r29, 0x01	; 1
    1580:	1b 01       	movw	r2, r22
	///// DECLARATION OF C INPUT VARIABLE ///////////////////////////////////
	
	
	int adjustC = 10;
	
	struct io_type delta_C; strcpy(delta_C.name, "delta_C");
    1582:	88 e0       	ldi	r24, 0x08	; 8
    1584:	e2 ea       	ldi	r30, 0xA2	; 162
    1586:	f1 e0       	ldi	r31, 0x01	; 1
    1588:	de 01       	movw	r26, r28
    158a:	11 96       	adiw	r26, 0x01	; 1
    158c:	01 90       	ld	r0, Z+
    158e:	0d 92       	st	X+, r0
    1590:	8a 95       	dec	r24
    1592:	e1 f7       	brne	.-8      	; 0x158c <nDoFuzzy+0x4e>
	
	struct mf_type farRight;
	MATLAB_MF(&farRight, "farRight", 99, 100, 120+adjustC, 130+adjustC); // Min_value = 100
    1594:	3e 01       	movw	r6, r28
    1596:	21 e1       	ldi	r18, 0x11	; 17
    1598:	62 0e       	add	r6, r18
    159a:	71 1c       	adc	r7, r1
    159c:	0f 2e       	mov	r0, r31
    159e:	fc e8       	ldi	r31, 0x8C	; 140
    15a0:	ef 2e       	mov	r14, r31
    15a2:	f1 2c       	mov	r15, r1
    15a4:	f0 2d       	mov	r31, r0
    15a6:	02 e8       	ldi	r16, 0x82	; 130
    15a8:	10 e0       	ldi	r17, 0x00	; 0
    15aa:	24 e6       	ldi	r18, 0x64	; 100
    15ac:	30 e0       	ldi	r19, 0x00	; 0
    15ae:	43 e6       	ldi	r20, 0x63	; 99
    15b0:	50 e0       	ldi	r21, 0x00	; 0
    15b2:	6a ea       	ldi	r22, 0xAA	; 170
    15b4:	71 e0       	ldi	r23, 0x01	; 1
    15b6:	c3 01       	movw	r24, r6
    15b8:	c7 dc       	rcall	.-1650   	; 0xf48 <MATLAB_MF>
	struct mf_type smallRight;
	MATLAB_MF(&smallRight, "smallRig", 120+adjustC, 130+adjustC, 140+adjustC, 145+adjustC);
    15ba:	4e 01       	movw	r8, r28
    15bc:	47 e2       	ldi	r20, 0x27	; 39
    15be:	84 0e       	add	r8, r20
    15c0:	91 1c       	adc	r9, r1
    15c2:	0f 2e       	mov	r0, r31
    15c4:	fb e9       	ldi	r31, 0x9B	; 155
    15c6:	ef 2e       	mov	r14, r31
    15c8:	f1 2c       	mov	r15, r1
    15ca:	f0 2d       	mov	r31, r0
    15cc:	06 e9       	ldi	r16, 0x96	; 150
    15ce:	10 e0       	ldi	r17, 0x00	; 0
    15d0:	2c e8       	ldi	r18, 0x8C	; 140
    15d2:	30 e0       	ldi	r19, 0x00	; 0
    15d4:	42 e8       	ldi	r20, 0x82	; 130
    15d6:	50 e0       	ldi	r21, 0x00	; 0
    15d8:	63 eb       	ldi	r22, 0xB3	; 179
    15da:	71 e0       	ldi	r23, 0x01	; 1
    15dc:	c4 01       	movw	r24, r8
    15de:	b4 dc       	rcall	.-1688   	; 0xf48 <MATLAB_MF>
	struct mf_type centre;
	MATLAB_MF(&centre, "centre", 135+adjustC, 150+adjustC, 150+adjustC, 165+adjustC);
    15e0:	2e 01       	movw	r4, r28
    15e2:	6d e3       	ldi	r22, 0x3D	; 61
    15e4:	46 0e       	add	r4, r22
    15e6:	51 1c       	adc	r5, r1
    15e8:	0f 2e       	mov	r0, r31
    15ea:	ff ea       	ldi	r31, 0xAF	; 175
    15ec:	ef 2e       	mov	r14, r31
    15ee:	f1 2c       	mov	r15, r1
    15f0:	f0 2d       	mov	r31, r0
    15f2:	00 ea       	ldi	r16, 0xA0	; 160
    15f4:	10 e0       	ldi	r17, 0x00	; 0
    15f6:	20 ea       	ldi	r18, 0xA0	; 160
    15f8:	30 e0       	ldi	r19, 0x00	; 0
    15fa:	41 e9       	ldi	r20, 0x91	; 145
    15fc:	50 e0       	ldi	r21, 0x00	; 0
    15fe:	6b e8       	ldi	r22, 0x8B	; 139
    1600:	71 e0       	ldi	r23, 0x01	; 1
    1602:	c2 01       	movw	r24, r4
    1604:	a1 dc       	rcall	.-1726   	; 0xf48 <MATLAB_MF>
	struct mf_type smallLeft;
	MATLAB_MF(&smallLeft, "smallLe", 155+adjustC, 160+adjustC, 170+adjustC, 180+adjustC);
    1606:	5e 01       	movw	r10, r28
    1608:	83 e5       	ldi	r24, 0x53	; 83
    160a:	a8 0e       	add	r10, r24
    160c:	b1 1c       	adc	r11, r1
    160e:	0f 2e       	mov	r0, r31
    1610:	fe eb       	ldi	r31, 0xBE	; 190
    1612:	ef 2e       	mov	r14, r31
    1614:	f1 2c       	mov	r15, r1
    1616:	f0 2d       	mov	r31, r0
    1618:	04 eb       	ldi	r16, 0xB4	; 180
    161a:	10 e0       	ldi	r17, 0x00	; 0
    161c:	2a ea       	ldi	r18, 0xAA	; 170
    161e:	30 e0       	ldi	r19, 0x00	; 0
    1620:	45 ea       	ldi	r20, 0xA5	; 165
    1622:	50 e0       	ldi	r21, 0x00	; 0
    1624:	6c eb       	ldi	r22, 0xBC	; 188
    1626:	71 e0       	ldi	r23, 0x01	; 1
    1628:	c5 01       	movw	r24, r10
    162a:	8e dc       	rcall	.-1764   	; 0xf48 <MATLAB_MF>
	struct mf_type farLeft;
	MATLAB_MF(&farLeft, "farLeft", 170+adjustC, 180+adjustC, 200+adjustC, 201+adjustC);  // Max_value = 200
    162c:	6e 01       	movw	r12, r28
    162e:	99 e6       	ldi	r25, 0x69	; 105
    1630:	c9 0e       	add	r12, r25
    1632:	d1 1c       	adc	r13, r1
    1634:	0f 2e       	mov	r0, r31
    1636:	f3 ed       	ldi	r31, 0xD3	; 211
    1638:	ef 2e       	mov	r14, r31
    163a:	f1 2c       	mov	r15, r1
    163c:	f0 2d       	mov	r31, r0
    163e:	02 ed       	ldi	r16, 0xD2	; 210
    1640:	10 e0       	ldi	r17, 0x00	; 0
    1642:	2e eb       	ldi	r18, 0xBE	; 190
    1644:	30 e0       	ldi	r19, 0x00	; 0
    1646:	44 eb       	ldi	r20, 0xB4	; 180
    1648:	50 e0       	ldi	r21, 0x00	; 0
    164a:	64 ec       	ldi	r22, 0xC4	; 196
    164c:	71 e0       	ldi	r23, 0x01	; 1
    164e:	c6 01       	movw	r24, r12
    1650:	7b dc       	rcall	.-1802   	; 0xf48 <MATLAB_MF>
	
	delta_C.membership_functions = &farRight;
    1652:	7e 86       	std	Y+14, r7	; 0x0e
    1654:	6d 86       	std	Y+13, r6	; 0x0d
	farRight.next = &smallRight;
    1656:	9e a2       	std	Y+38, r9	; 0x26
    1658:	8d a2       	std	Y+37, r8	; 0x25
	smallRight.next = &centre;
    165a:	5c ae       	std	Y+60, r5	; 0x3c
    165c:	4b ae       	std	Y+59, r4	; 0x3b
	centre.next = &smallLeft;
    165e:	63 96       	adiw	r28, 0x13	; 19
    1660:	bf ae       	std	Y+63, r11	; 0x3f
    1662:	ae ae       	std	Y+62, r10	; 0x3e
    1664:	63 97       	sbiw	r28, 0x13	; 19
	smallLeft.next = &farLeft;
    1666:	f5 01       	movw	r30, r10
    1668:	d5 8a       	std	Z+21, r13	; 0x15
    166a:	c4 8a       	std	Z+20, r12	; 0x14
	farLeft.next = NULL;
    166c:	f6 01       	movw	r30, r12
    166e:	15 8a       	std	Z+21, r1	; 0x15
    1670:	14 8a       	std	Z+20, r1	; 0x14
	
	// set iErr's input value to measErr value
	if(c<100)				// if sensor value is smaller than delta_C's input set's lower limit
    1672:	c3 54       	subi	r28, 0x43	; 67
    1674:	de 4f       	sbci	r29, 0xFE	; 254
    1676:	88 81       	ld	r24, Y
    1678:	99 81       	ldd	r25, Y+1	; 0x01
    167a:	cd 5b       	subi	r28, 0xBD	; 189
    167c:	d1 40       	sbci	r29, 0x01	; 1
    167e:	84 36       	cpi	r24, 0x64	; 100
    1680:	91 05       	cpc	r25, r1
    1682:	2c f4       	brge	.+10     	; 0x168e <nDoFuzzy+0x150>
	{
		delta_C.value = 100;  // force input value to lowest point in delta_C's input set
    1684:	84 e6       	ldi	r24, 0x64	; 100
    1686:	90 e0       	ldi	r25, 0x00	; 0
    1688:	9c 87       	std	Y+12, r25	; 0x0c
    168a:	8b 87       	std	Y+11, r24	; 0x0b
    168c:	16 c0       	rjmp	.+44     	; 0x16ba <nDoFuzzy+0x17c>
	}
	else if(c>200+adjustC)			// if sensor value is bigger than delta_C's input set's upper limit
    168e:	c3 54       	subi	r28, 0x43	; 67
    1690:	de 4f       	sbci	r29, 0xFE	; 254
    1692:	e8 81       	ld	r30, Y
    1694:	f9 81       	ldd	r31, Y+1	; 0x01
    1696:	cd 5b       	subi	r28, 0xBD	; 189
    1698:	d1 40       	sbci	r29, 0x01	; 1
    169a:	e3 3d       	cpi	r30, 0xD3	; 211
    169c:	f1 05       	cpc	r31, r1
    169e:	2c f0       	brlt	.+10     	; 0x16aa <nDoFuzzy+0x16c>
	{
		delta_C.value = 200+adjustC;  // force input value to lowest point in delta_C's input set
    16a0:	82 ed       	ldi	r24, 0xD2	; 210
    16a2:	90 e0       	ldi	r25, 0x00	; 0
    16a4:	9c 87       	std	Y+12, r25	; 0x0c
    16a6:	8b 87       	std	Y+11, r24	; 0x0b
    16a8:	08 c0       	rjmp	.+16     	; 0x16ba <nDoFuzzy+0x17c>
	}
	else
	{
		delta_C.value = c;
    16aa:	c3 54       	subi	r28, 0x43	; 67
    16ac:	de 4f       	sbci	r29, 0xFE	; 254
    16ae:	88 81       	ld	r24, Y
    16b0:	99 81       	ldd	r25, Y+1	; 0x01
    16b2:	cd 5b       	subi	r28, 0xBD	; 189
    16b4:	d1 40       	sbci	r29, 0x01	; 1
    16b6:	9c 87       	std	Y+12, r25	; 0x0c
    16b8:	8b 87       	std	Y+11, r24	; 0x0b
	}
	
	///// DECLARATION OF V INPUT VARIABLE ///////////////////////////////////
	
	struct io_type delta_V; strcpy(delta_V.name, "delta_V");
    16ba:	88 e0       	ldi	r24, 0x08	; 8
    16bc:	ec ec       	ldi	r30, 0xCC	; 204
    16be:	f1 e0       	ldi	r31, 0x01	; 1
    16c0:	de 01       	movw	r26, r28
    16c2:	a1 58       	subi	r26, 0x81	; 129
    16c4:	bf 4f       	sbci	r27, 0xFF	; 255
    16c6:	01 90       	ld	r0, Z+
    16c8:	0d 92       	st	X+, r0
    16ca:	8a 95       	dec	r24
    16cc:	e1 f7       	brne	.-8      	; 0x16c6 <nDoFuzzy+0x188>
	
	struct mf_type leftOriented;
	MATLAB_MF(&leftOriented, "leftOri", -1, 0, 0, 60); // min V is 0
    16ce:	4e 01       	movw	r8, r28
    16d0:	9f e8       	ldi	r25, 0x8F	; 143
    16d2:	89 0e       	add	r8, r25
    16d4:	91 1c       	adc	r9, r1
    16d6:	0f 2e       	mov	r0, r31
    16d8:	fc e3       	ldi	r31, 0x3C	; 60
    16da:	ef 2e       	mov	r14, r31
    16dc:	f1 2c       	mov	r15, r1
    16de:	f0 2d       	mov	r31, r0
    16e0:	00 e0       	ldi	r16, 0x00	; 0
    16e2:	10 e0       	ldi	r17, 0x00	; 0
    16e4:	20 e0       	ldi	r18, 0x00	; 0
    16e6:	30 e0       	ldi	r19, 0x00	; 0
    16e8:	4f ef       	ldi	r20, 0xFF	; 255
    16ea:	5f ef       	ldi	r21, 0xFF	; 255
    16ec:	64 ed       	ldi	r22, 0xD4	; 212
    16ee:	71 e0       	ldi	r23, 0x01	; 1
    16f0:	c4 01       	movw	r24, r8
    16f2:	2a dc       	rcall	.-1964   	; 0xf48 <MATLAB_MF>
	
	struct mf_type straightOriented;
	MATLAB_MF(&straightOriented, "straOri", 10, 40, 40, 70);
    16f4:	5e 01       	movw	r10, r28
    16f6:	e5 ea       	ldi	r30, 0xA5	; 165
    16f8:	ae 0e       	add	r10, r30
    16fa:	b1 1c       	adc	r11, r1
    16fc:	0f 2e       	mov	r0, r31
    16fe:	f6 e4       	ldi	r31, 0x46	; 70
    1700:	ef 2e       	mov	r14, r31
    1702:	f1 2c       	mov	r15, r1
    1704:	f0 2d       	mov	r31, r0
    1706:	08 e2       	ldi	r16, 0x28	; 40
    1708:	10 e0       	ldi	r17, 0x00	; 0
    170a:	28 e2       	ldi	r18, 0x28	; 40
    170c:	30 e0       	ldi	r19, 0x00	; 0
    170e:	4a e0       	ldi	r20, 0x0A	; 10
    1710:	50 e0       	ldi	r21, 0x00	; 0
    1712:	6c ed       	ldi	r22, 0xDC	; 220
    1714:	71 e0       	ldi	r23, 0x01	; 1
    1716:	c5 01       	movw	r24, r10
    1718:	17 dc       	rcall	.-2002   	; 0xf48 <MATLAB_MF>
		
	struct mf_type rightOriented;
	MATLAB_MF(&rightOriented, "rightOri", 20, 80, 80, 81); // max V is 80
    171a:	6e 01       	movw	r12, r28
    171c:	fb eb       	ldi	r31, 0xBB	; 187
    171e:	cf 0e       	add	r12, r31
    1720:	d1 1c       	adc	r13, r1
    1722:	0f 2e       	mov	r0, r31
    1724:	f1 e5       	ldi	r31, 0x51	; 81
    1726:	ef 2e       	mov	r14, r31
    1728:	f1 2c       	mov	r15, r1
    172a:	f0 2d       	mov	r31, r0
    172c:	00 e5       	ldi	r16, 0x50	; 80
    172e:	10 e0       	ldi	r17, 0x00	; 0
    1730:	20 e5       	ldi	r18, 0x50	; 80
    1732:	30 e0       	ldi	r19, 0x00	; 0
    1734:	44 e1       	ldi	r20, 0x14	; 20
    1736:	50 e0       	ldi	r21, 0x00	; 0
    1738:	64 ee       	ldi	r22, 0xE4	; 228
    173a:	71 e0       	ldi	r23, 0x01	; 1
    173c:	c6 01       	movw	r24, r12
    173e:	04 dc       	rcall	.-2040   	; 0xf48 <MATLAB_MF>

	delta_V.membership_functions = &leftOriented;
    1740:	c5 57       	subi	r28, 0x75	; 117
    1742:	df 4f       	sbci	r29, 0xFF	; 255
    1744:	99 82       	std	Y+1, r9	; 0x01
    1746:	88 82       	st	Y, r8
    1748:	cb 58       	subi	r28, 0x8B	; 139
    174a:	d0 40       	sbci	r29, 0x00	; 0
	leftOriented.next = &straightOriented;
    174c:	f4 01       	movw	r30, r8
    174e:	b5 8a       	std	Z+21, r11	; 0x15
    1750:	a4 8a       	std	Z+20, r10	; 0x14
	straightOriented.next = &rightOriented;
    1752:	f5 01       	movw	r30, r10
    1754:	d5 8a       	std	Z+21, r13	; 0x15
    1756:	c4 8a       	std	Z+20, r12	; 0x14
	rightOriented.next = NULL;
    1758:	f6 01       	movw	r30, r12
    175a:	15 8a       	std	Z+21, r1	; 0x15
    175c:	14 8a       	std	Z+20, r1	; 0x14
	
	// set V's input value to Vs value
	if(v<=0)				// if sensor value is smaller than error's input set lower limit
    175e:	12 14       	cp	r1, r2
    1760:	13 04       	cpc	r1, r3
    1762:	4c f0       	brlt	.+18     	; 0x1776 <nDoFuzzy+0x238>
	{
		delta_V.value = 1;  // force input value to lowest point in delta_V's input set
    1764:	81 e0       	ldi	r24, 0x01	; 1
    1766:	90 e0       	ldi	r25, 0x00	; 0
    1768:	c7 57       	subi	r28, 0x77	; 119
    176a:	df 4f       	sbci	r29, 0xFF	; 255
    176c:	99 83       	std	Y+1, r25	; 0x01
    176e:	88 83       	st	Y, r24
    1770:	c9 58       	subi	r28, 0x89	; 137
    1772:	d0 40       	sbci	r29, 0x00	; 0
    1774:	13 c0       	rjmp	.+38     	; 0x179c <nDoFuzzy+0x25e>
	}
	else if(v>=80)			// if sensor value is bigger than error's input set's upper limit
    1776:	f0 e5       	ldi	r31, 0x50	; 80
    1778:	2f 16       	cp	r2, r31
    177a:	31 04       	cpc	r3, r1
    177c:	4c f0       	brlt	.+18     	; 0x1790 <nDoFuzzy+0x252>
	{
		delta_V.value = 79;  // force input value to lowest point in error's input set
    177e:	8f e4       	ldi	r24, 0x4F	; 79
    1780:	90 e0       	ldi	r25, 0x00	; 0
    1782:	c7 57       	subi	r28, 0x77	; 119
    1784:	df 4f       	sbci	r29, 0xFF	; 255
    1786:	99 83       	std	Y+1, r25	; 0x01
    1788:	88 83       	st	Y, r24
    178a:	c9 58       	subi	r28, 0x89	; 137
    178c:	d0 40       	sbci	r29, 0x00	; 0
    178e:	06 c0       	rjmp	.+12     	; 0x179c <nDoFuzzy+0x25e>
	}
	else
	{
		delta_V.value = v;
    1790:	c7 57       	subi	r28, 0x77	; 119
    1792:	df 4f       	sbci	r29, 0xFF	; 255
    1794:	39 82       	std	Y+1, r3	; 0x01
    1796:	28 82       	st	Y, r2
    1798:	c9 58       	subi	r28, 0x89	; 137
    179a:	d0 40       	sbci	r29, 0x00	; 0
	}
	
	///// DECLARATION OF STEERING OUTPUT VARIABLE ///////////////////////////////////

	struct io_type steering; strcpy(steering.name, "steering"); // All outputs downscaled by a factor 10
    179c:	6e 01       	movw	r12, r28
    179e:	21 ed       	ldi	r18, 0xD1	; 209
    17a0:	c2 0e       	add	r12, r18
    17a2:	d1 1c       	adc	r13, r1
    17a4:	89 e0       	ldi	r24, 0x09	; 9
    17a6:	e9 e0       	ldi	r30, 0x09	; 9
    17a8:	f1 e0       	ldi	r31, 0x01	; 1
    17aa:	d6 01       	movw	r26, r12
    17ac:	01 90       	ld	r0, Z+
    17ae:	0d 92       	st	X+, r0
    17b0:	8a 95       	dec	r24
    17b2:	e1 f7       	brne	.-8      	; 0x17ac <nDoFuzzy+0x26e>
	
	struct mf_type sharpLeft;
	MATLAB_MF(&sharpLeft, "sharpLe", 216, 217, 217, 235);
    17b4:	0f 2e       	mov	r0, r31
    17b6:	fb ee       	ldi	r31, 0xEB	; 235
    17b8:	ef 2e       	mov	r14, r31
    17ba:	f1 2c       	mov	r15, r1
    17bc:	f0 2d       	mov	r31, r0
    17be:	09 ed       	ldi	r16, 0xD9	; 217
    17c0:	10 e0       	ldi	r17, 0x00	; 0
    17c2:	29 ed       	ldi	r18, 0xD9	; 217
    17c4:	30 e0       	ldi	r19, 0x00	; 0
    17c6:	48 ed       	ldi	r20, 0xD8	; 216
    17c8:	50 e0       	ldi	r21, 0x00	; 0
    17ca:	6d ee       	ldi	r22, 0xED	; 237
    17cc:	71 e0       	ldi	r23, 0x01	; 1
    17ce:	ce 01       	movw	r24, r28
    17d0:	8f 51       	subi	r24, 0x1F	; 31
    17d2:	9f 4f       	sbci	r25, 0xFF	; 255
    17d4:	b9 db       	rcall	.-2190   	; 0xf48 <MATLAB_MF>
	struct mf_type left;
	MATLAB_MF(&left, "left", 224, 239, 239, 254);
    17d6:	2e 01       	movw	r4, r28
    17d8:	47 ef       	ldi	r20, 0xF7	; 247
    17da:	44 0e       	add	r4, r20
    17dc:	51 1c       	adc	r5, r1
    17de:	0f 2e       	mov	r0, r31
    17e0:	fe ef       	ldi	r31, 0xFE	; 254
    17e2:	ef 2e       	mov	r14, r31
    17e4:	f1 2c       	mov	r15, r1
    17e6:	f0 2d       	mov	r31, r0
    17e8:	0f ee       	ldi	r16, 0xEF	; 239
    17ea:	10 e0       	ldi	r17, 0x00	; 0
    17ec:	2f ee       	ldi	r18, 0xEF	; 239
    17ee:	30 e0       	ldi	r19, 0x00	; 0
    17f0:	40 ee       	ldi	r20, 0xE0	; 224
    17f2:	50 e0       	ldi	r21, 0x00	; 0
    17f4:	60 e2       	ldi	r22, 0x20	; 32
    17f6:	71 e0       	ldi	r23, 0x01	; 1
    17f8:	c2 01       	movw	r24, r4
    17fa:	a6 db       	rcall	.-2228   	; 0xf48 <MATLAB_MF>
	struct mf_type straight;
	MATLAB_MF(&straight, "straight", 244, 259, 259, 274);
    17fc:	1e 01       	movw	r2, r28
    17fe:	63 ef       	ldi	r22, 0xF3	; 243
    1800:	26 1a       	sub	r2, r22
    1802:	6e ef       	ldi	r22, 0xFE	; 254
    1804:	36 0a       	sbc	r3, r22
    1806:	0f 2e       	mov	r0, r31
    1808:	f2 e1       	ldi	r31, 0x12	; 18
    180a:	ef 2e       	mov	r14, r31
    180c:	ff 24       	eor	r15, r15
    180e:	f3 94       	inc	r15
    1810:	f0 2d       	mov	r31, r0
    1812:	03 e0       	ldi	r16, 0x03	; 3
    1814:	11 e0       	ldi	r17, 0x01	; 1
    1816:	23 e0       	ldi	r18, 0x03	; 3
    1818:	31 e0       	ldi	r19, 0x01	; 1
    181a:	44 ef       	ldi	r20, 0xF4	; 244
    181c:	50 e0       	ldi	r21, 0x00	; 0
    181e:	65 e2       	ldi	r22, 0x25	; 37
    1820:	71 e0       	ldi	r23, 0x01	; 1
    1822:	c1 01       	movw	r24, r2
    1824:	91 db       	rcall	.-2270   	; 0xf48 <MATLAB_MF>
	struct mf_type right;
	MATLAB_MF(&right, "right", 264, 279, 279, 294);
    1826:	3e 01       	movw	r6, r28
    1828:	8d ed       	ldi	r24, 0xDD	; 221
    182a:	68 1a       	sub	r6, r24
    182c:	8e ef       	ldi	r24, 0xFE	; 254
    182e:	78 0a       	sbc	r7, r24
    1830:	0f 2e       	mov	r0, r31
    1832:	f6 e2       	ldi	r31, 0x26	; 38
    1834:	ef 2e       	mov	r14, r31
    1836:	ff 24       	eor	r15, r15
    1838:	f3 94       	inc	r15
    183a:	f0 2d       	mov	r31, r0
    183c:	07 e1       	ldi	r16, 0x17	; 23
    183e:	11 e0       	ldi	r17, 0x01	; 1
    1840:	27 e1       	ldi	r18, 0x17	; 23
    1842:	31 e0       	ldi	r19, 0x01	; 1
    1844:	48 e0       	ldi	r20, 0x08	; 8
    1846:	51 e0       	ldi	r21, 0x01	; 1
    1848:	6e e2       	ldi	r22, 0x2E	; 46
    184a:	71 e0       	ldi	r23, 0x01	; 1
    184c:	c3 01       	movw	r24, r6
    184e:	7c db       	rcall	.-2312   	; 0xf48 <MATLAB_MF>
	struct mf_type sharpRight;
	MATLAB_MF(&sharpRight, "sharpRi", 285, 302, 302, 303);
    1850:	5e 01       	movw	r10, r28
    1852:	97 ec       	ldi	r25, 0xC7	; 199
    1854:	a9 1a       	sub	r10, r25
    1856:	9e ef       	ldi	r25, 0xFE	; 254
    1858:	b9 0a       	sbc	r11, r25
    185a:	0f 2e       	mov	r0, r31
    185c:	ff e2       	ldi	r31, 0x2F	; 47
    185e:	ef 2e       	mov	r14, r31
    1860:	ff 24       	eor	r15, r15
    1862:	f3 94       	inc	r15
    1864:	f0 2d       	mov	r31, r0
    1866:	0e e2       	ldi	r16, 0x2E	; 46
    1868:	11 e0       	ldi	r17, 0x01	; 1
    186a:	2e e2       	ldi	r18, 0x2E	; 46
    186c:	31 e0       	ldi	r19, 0x01	; 1
    186e:	4d e1       	ldi	r20, 0x1D	; 29
    1870:	51 e0       	ldi	r21, 0x01	; 1
    1872:	65 ef       	ldi	r22, 0xF5	; 245
    1874:	71 e0       	ldi	r23, 0x01	; 1
    1876:	c5 01       	movw	r24, r10
    1878:	67 db       	rcall	.-2354   	; 0xf48 <MATLAB_MF>
	
	steering.membership_functions = &sharpRight;
    187a:	f6 01       	movw	r30, r12
    187c:	b5 86       	std	Z+13, r11	; 0x0d
    187e:	a4 86       	std	Z+12, r10	; 0x0c
	sharpRight.next = &right;
    1880:	f5 01       	movw	r30, r10
    1882:	75 8a       	std	Z+21, r7	; 0x15
    1884:	64 8a       	std	Z+20, r6	; 0x14
	right.next = &straight;
    1886:	f3 01       	movw	r30, r6
    1888:	35 8a       	std	Z+21, r3	; 0x15
    188a:	24 8a       	std	Z+20, r2	; 0x14
	straight.next = &left;
    188c:	f1 01       	movw	r30, r2
    188e:	55 8a       	std	Z+21, r5	; 0x15
    1890:	44 8a       	std	Z+20, r4	; 0x14
	left.next = &sharpLeft;
    1892:	81 ee       	ldi	r24, 0xE1	; 225
    1894:	90 e0       	ldi	r25, 0x00	; 0
    1896:	8c 0f       	add	r24, r28
    1898:	9d 1f       	adc	r25, r29
    189a:	f2 01       	movw	r30, r4
    189c:	95 8b       	std	Z+21, r25	; 0x15
    189e:	84 8b       	std	Z+20, r24	; 0x14
	sharpLeft.next = NULL;
    18a0:	cb 50       	subi	r28, 0x0B	; 11
    18a2:	df 4f       	sbci	r29, 0xFF	; 255
    18a4:	19 82       	std	Y+1, r1	; 0x01
    18a6:	18 82       	st	Y, r1
    18a8:	c5 5f       	subi	r28, 0xF5	; 245
    18aa:	d0 40       	sbci	r29, 0x00	; 0
	
	
	
	// pointers to top of lists

	System_Inputs = &delta_C;
    18ac:	80 5e       	subi	r24, 0xE0	; 224
    18ae:	91 09       	sbc	r25, r1
    18b0:	90 93 1d 03 	sts	0x031D, r25
    18b4:	80 93 1c 03 	sts	0x031C, r24
	delta_C.next = &delta_V;
    18b8:	e8 57       	subi	r30, 0x78	; 120
    18ba:	f1 09       	sbc	r31, r1
    18bc:	f8 8b       	std	Y+16, r31	; 0x10
    18be:	ef 87       	std	Y+15, r30	; 0x0f
	delta_V.next = NULL;
    18c0:	17 86       	std	Z+15, r1	; 0x0f
    18c2:	16 86       	std	Z+14, r1	; 0x0e
	System_Outputs = &steering;
    18c4:	d0 92 1b 03 	sts	0x031B, r13
    18c8:	c0 92 1a 03 	sts	0x031A, r12
	steering.next = NULL;
    18cc:	f6 01       	movw	r30, r12
    18ce:	17 86       	std	Z+15, r1	; 0x0f
    18d0:	16 86       	std	Z+14, r1	; 0x0e


	struct rule_type rule1; Rule_Base = &rule1;
    18d2:	4e 01       	movw	r8, r28
    18d4:	f1 eb       	ldi	r31, 0xB1	; 177
    18d6:	8f 1a       	sub	r8, r31
    18d8:	fe ef       	ldi	r31, 0xFE	; 254
    18da:	9f 0a       	sbc	r9, r31
    18dc:	90 92 1f 03 	sts	0x031F, r9
    18e0:	80 92 1e 03 	sts	0x031E, r8
	struct rule_type rule2; rule1.next = &rule2;
    18e4:	be 01       	movw	r22, r28
    18e6:	6b 5a       	subi	r22, 0xAB	; 171
    18e8:	7e 4f       	sbci	r23, 0xFE	; 254
    18ea:	f4 01       	movw	r30, r8
    18ec:	75 83       	std	Z+5, r23	; 0x05
    18ee:	64 83       	std	Z+4, r22	; 0x04
	struct rule_type rule3; rule2.next = &rule3;
    18f0:	ae 01       	movw	r20, r28
    18f2:	45 5a       	subi	r20, 0xA5	; 165
    18f4:	5e 4f       	sbci	r21, 0xFE	; 254
    18f6:	fb 01       	movw	r30, r22
    18f8:	55 83       	std	Z+5, r21	; 0x05
    18fa:	44 83       	std	Z+4, r20	; 0x04
	struct rule_type rule4; rule3.next = &rule4;
    18fc:	9e 01       	movw	r18, r28
    18fe:	2f 59       	subi	r18, 0x9F	; 159
    1900:	3e 4f       	sbci	r19, 0xFE	; 254
    1902:	fa 01       	movw	r30, r20
    1904:	35 83       	std	Z+5, r19	; 0x05
    1906:	24 83       	std	Z+4, r18	; 0x04
	struct rule_type rule5; rule4.next = &rule5;
    1908:	8a 59       	subi	r24, 0x9A	; 154
    190a:	9e 4f       	sbci	r25, 0xFE	; 254
    190c:	f9 01       	movw	r30, r18
    190e:	95 83       	std	Z+5, r25	; 0x05
    1910:	84 83       	std	Z+4, r24	; 0x04
	struct rule_type rule6; rule5.next = &rule6;
    1912:	de 01       	movw	r26, r28
    1914:	a3 59       	subi	r26, 0x93	; 147
    1916:	be 4f       	sbci	r27, 0xFE	; 254
    1918:	fc 01       	movw	r30, r24
    191a:	b5 83       	std	Z+5, r27	; 0x05
    191c:	a4 83       	std	Z+4, r26	; 0x04
	struct rule_type rule7; rule6.next = &rule7;
    191e:	e3 e7       	ldi	r30, 0x73	; 115
    1920:	f1 e0       	ldi	r31, 0x01	; 1
    1922:	ec 0f       	add	r30, r28
    1924:	fd 1f       	adc	r31, r29
    1926:	15 96       	adiw	r26, 0x05	; 5
    1928:	fc 93       	st	X, r31
    192a:	ee 93       	st	-X, r30
    192c:	14 97       	sbiw	r26, 0x04	; 4
	rule7.next = NULL;
    192e:	c9 58       	subi	r28, 0x89	; 137
    1930:	de 4f       	sbci	r29, 0xFE	; 254
    1932:	19 82       	std	Y+1, r1	; 0x01
    1934:	18 82       	st	Y, r1
    1936:	c7 57       	subi	r28, 0x77	; 119
    1938:	d1 40       	sbci	r29, 0x01	; 1
	// RULE SETUP
	//////////////////////////////////////////////////////////////////////////////

	////RULE 1 "if deltaC is farLeft then steering is SharpRight"
	struct rule_element_type if11, then1;
	rule1.if_side = &if11; if11.next = NULL; rule1.then_side = &then1; then1.next = NULL;
    193a:	8e 01       	movw	r16, r28
    193c:	07 58       	subi	r16, 0x87	; 135
    193e:	1e 4f       	sbci	r17, 0xFE	; 254
    1940:	f4 01       	movw	r30, r8
    1942:	11 83       	std	Z+1, r17	; 0x01
    1944:	00 83       	st	Z, r16
    1946:	f8 01       	movw	r30, r16
    1948:	13 82       	std	Z+3, r1	; 0x03
    194a:	12 82       	std	Z+2, r1	; 0x02
    194c:	7e 01       	movw	r14, r28
    194e:	f3 e8       	ldi	r31, 0x83	; 131
    1950:	ef 1a       	sub	r14, r31
    1952:	fe ef       	ldi	r31, 0xFE	; 254
    1954:	ff 0a       	sbc	r15, r31
    1956:	f4 01       	movw	r30, r8
    1958:	f3 82       	std	Z+3, r15	; 0x03
    195a:	e2 82       	std	Z+2, r14	; 0x02
    195c:	f7 01       	movw	r30, r14
    195e:	13 82       	std	Z+3, r1	; 0x03
    1960:	12 82       	std	Z+2, r1	; 0x02
	if11.value = &farLeft.value; then1.value = &sharpRight.value;
    1962:	4e 01       	movw	r8, r28
    1964:	f3 e7       	ldi	r31, 0x73	; 115
    1966:	8f 0e       	add	r8, r31
    1968:	91 1c       	adc	r9, r1
    196a:	f8 01       	movw	r30, r16
    196c:	91 82       	std	Z+1, r9	; 0x01
    196e:	80 82       	st	Z, r8
    1970:	fa e0       	ldi	r31, 0x0A	; 10
    1972:	af 0e       	add	r10, r31
    1974:	b1 1c       	adc	r11, r1
    1976:	f7 01       	movw	r30, r14
    1978:	b1 82       	std	Z+1, r11	; 0x01
    197a:	a0 82       	st	Z, r10

	////RULE 2 "if deltaC is smallLeft then steering is right"
	struct rule_element_type if21, then2;
	rule2.if_side = &if21; if21.next = NULL; rule2.then_side = &then2; then2.next = NULL;
    197c:	08 5f       	subi	r16, 0xF8	; 248
    197e:	1f 4f       	sbci	r17, 0xFF	; 255
    1980:	fb 01       	movw	r30, r22
    1982:	11 83       	std	Z+1, r17	; 0x01
    1984:	00 83       	st	Z, r16
    1986:	f8 01       	movw	r30, r16
    1988:	13 82       	std	Z+3, r1	; 0x03
    198a:	12 82       	std	Z+2, r1	; 0x02
    198c:	7e 01       	movw	r14, r28
    198e:	fb e7       	ldi	r31, 0x7B	; 123
    1990:	ef 1a       	sub	r14, r31
    1992:	fe ef       	ldi	r31, 0xFE	; 254
    1994:	ff 0a       	sbc	r15, r31
    1996:	fb 01       	movw	r30, r22
    1998:	f3 82       	std	Z+3, r15	; 0x03
    199a:	e2 82       	std	Z+2, r14	; 0x02
    199c:	f7 01       	movw	r30, r14
    199e:	13 82       	std	Z+3, r1	; 0x03
    19a0:	12 82       	std	Z+2, r1	; 0x02
	if21.value = &smallLeft.value; then2.value = &right.value;
    19a2:	68 5f       	subi	r22, 0xF8	; 248
    19a4:	71 09       	sbc	r23, r1
    19a6:	f8 01       	movw	r30, r16
    19a8:	71 83       	std	Z+1, r23	; 0x01
    19aa:	60 83       	st	Z, r22
    19ac:	fa e0       	ldi	r31, 0x0A	; 10
    19ae:	6f 0e       	add	r6, r31
    19b0:	71 1c       	adc	r7, r1
    19b2:	f7 01       	movw	r30, r14
    19b4:	71 82       	std	Z+1, r7	; 0x01
    19b6:	60 82       	st	Z, r6

	////RULE 5 "if deltaC is centre and deltaV is rightOriented then steering is left"
	struct rule_element_type if31, if32, then3;
	rule3.if_side = &if31; if31.next = &if32; if32.next = NULL; rule3.then_side = &then3; then3.next = NULL;
    19b8:	64 5d       	subi	r22, 0xD4	; 212
    19ba:	7e 4f       	sbci	r23, 0xFE	; 254
    19bc:	fa 01       	movw	r30, r20
    19be:	71 83       	std	Z+1, r23	; 0x01
    19c0:	60 83       	st	Z, r22
    19c2:	04 5f       	subi	r16, 0xF4	; 244
    19c4:	1f 4f       	sbci	r17, 0xFF	; 255
    19c6:	fb 01       	movw	r30, r22
    19c8:	13 83       	std	Z+3, r17	; 0x03
    19ca:	02 83       	std	Z+2, r16	; 0x02
    19cc:	f8 01       	movw	r30, r16
    19ce:	13 82       	std	Z+3, r1	; 0x03
    19d0:	12 82       	std	Z+2, r1	; 0x02
    19d2:	7e 01       	movw	r14, r28
    19d4:	ff e6       	ldi	r31, 0x6F	; 111
    19d6:	ef 1a       	sub	r14, r31
    19d8:	fe ef       	ldi	r31, 0xFE	; 254
    19da:	ff 0a       	sbc	r15, r31
    19dc:	fa 01       	movw	r30, r20
    19de:	f3 82       	std	Z+3, r15	; 0x03
    19e0:	e2 82       	std	Z+2, r14	; 0x02
    19e2:	f7 01       	movw	r30, r14
    19e4:	13 82       	std	Z+3, r1	; 0x03
    19e6:	12 82       	std	Z+2, r1	; 0x02
	if31.value = &centre.value; if32.value = &rightOriented.value; then3.value = &left.value;
    19e8:	5e 01       	movw	r10, r28
    19ea:	f7 e4       	ldi	r31, 0x47	; 71
    19ec:	af 0e       	add	r10, r31
    19ee:	b1 1c       	adc	r11, r1
    19f0:	fb 01       	movw	r30, r22
    19f2:	b1 82       	std	Z+1, r11	; 0x01
    19f4:	a0 82       	st	Z, r10
    19f6:	46 59       	subi	r20, 0x96	; 150
    19f8:	51 09       	sbc	r21, r1
    19fa:	f8 01       	movw	r30, r16
    19fc:	51 83       	std	Z+1, r21	; 0x01
    19fe:	40 83       	st	Z, r20
    1a00:	fa e0       	ldi	r31, 0x0A	; 10
    1a02:	4f 0e       	add	r4, r31
    1a04:	51 1c       	adc	r5, r1
    1a06:	f7 01       	movw	r30, r14
    1a08:	51 82       	std	Z+1, r5	; 0x01
    1a0a:	40 82       	st	Z, r4
	
	////RULE 6 "if deltaC is centre and deltaV is straightOriented then steering is straight"
	struct rule_element_type if41, if42, then4;
	rule4.if_side = &if41; if41.next = &if42; if42.next = NULL; rule4.then_side = &then4; then4.next = NULL;
    1a0c:	64 5f       	subi	r22, 0xF4	; 244
    1a0e:	7f 4f       	sbci	r23, 0xFF	; 255
    1a10:	f9 01       	movw	r30, r18
    1a12:	71 83       	std	Z+1, r23	; 0x01
    1a14:	60 83       	st	Z, r22
    1a16:	4c 52       	subi	r20, 0x2C	; 44
    1a18:	5f 4f       	sbci	r21, 0xFF	; 255
    1a1a:	fb 01       	movw	r30, r22
    1a1c:	53 83       	std	Z+3, r21	; 0x03
    1a1e:	42 83       	std	Z+2, r20	; 0x02
    1a20:	fa 01       	movw	r30, r20
    1a22:	13 82       	std	Z+3, r1	; 0x03
    1a24:	12 82       	std	Z+2, r1	; 0x02
    1a26:	00 5f       	subi	r16, 0xF0	; 240
    1a28:	1f 4f       	sbci	r17, 0xFF	; 255
    1a2a:	f9 01       	movw	r30, r18
    1a2c:	13 83       	std	Z+3, r17	; 0x03
    1a2e:	02 83       	std	Z+2, r16	; 0x02
    1a30:	f8 01       	movw	r30, r16
    1a32:	13 82       	std	Z+3, r1	; 0x03
    1a34:	12 82       	std	Z+2, r1	; 0x02
	if41.value = &centre.value; if42.value = &straightOriented.value; then4.value = &straight.value;
    1a36:	fb 01       	movw	r30, r22
    1a38:	b1 82       	std	Z+1, r11	; 0x01
    1a3a:	a0 82       	st	Z, r10
    1a3c:	22 5b       	subi	r18, 0xB2	; 178
    1a3e:	31 09       	sbc	r19, r1
    1a40:	fa 01       	movw	r30, r20
    1a42:	31 83       	std	Z+1, r19	; 0x01
    1a44:	20 83       	st	Z, r18
    1a46:	fa e0       	ldi	r31, 0x0A	; 10
    1a48:	2f 0e       	add	r2, r31
    1a4a:	31 1c       	adc	r3, r1
    1a4c:	f8 01       	movw	r30, r16
    1a4e:	31 82       	std	Z+1, r3	; 0x01
    1a50:	20 82       	st	Z, r2
	
	////RULE 5 "if deltaC is centre and deltaV is leftOriented then steering is right"
	struct rule_element_type if51, if52, then5;
	rule5.if_side = &if51; if51.next = &if52; if52.next = NULL; rule5.then_side = &then5; then5.next = NULL;
    1a52:	64 5f       	subi	r22, 0xF4	; 244
    1a54:	7f 4f       	sbci	r23, 0xFF	; 255
    1a56:	fc 01       	movw	r30, r24
    1a58:	71 83       	std	Z+1, r23	; 0x01
    1a5a:	60 83       	st	Z, r22
    1a5c:	44 5f       	subi	r20, 0xF4	; 244
    1a5e:	5f 4f       	sbci	r21, 0xFF	; 255
    1a60:	fb 01       	movw	r30, r22
    1a62:	53 83       	std	Z+3, r21	; 0x03
    1a64:	42 83       	std	Z+2, r20	; 0x02
    1a66:	fa 01       	movw	r30, r20
    1a68:	13 82       	std	Z+3, r1	; 0x03
    1a6a:	12 82       	std	Z+2, r1	; 0x02
    1a6c:	26 50       	subi	r18, 0x06	; 6
    1a6e:	3f 4f       	sbci	r19, 0xFF	; 255
    1a70:	fc 01       	movw	r30, r24
    1a72:	33 83       	std	Z+3, r19	; 0x03
    1a74:	22 83       	std	Z+2, r18	; 0x02
    1a76:	f9 01       	movw	r30, r18
    1a78:	13 82       	std	Z+3, r1	; 0x03
    1a7a:	12 82       	std	Z+2, r1	; 0x02
	if51.value = &centre.value; if52.value = &leftOriented.value; then5.value = &right.value;
    1a7c:	fb 01       	movw	r30, r22
    1a7e:	b1 82       	std	Z+1, r11	; 0x01
    1a80:	a0 82       	st	Z, r10
    1a82:	8e 5c       	subi	r24, 0xCE	; 206
    1a84:	91 09       	sbc	r25, r1
    1a86:	fa 01       	movw	r30, r20
    1a88:	91 83       	std	Z+1, r25	; 0x01
    1a8a:	80 83       	st	Z, r24
    1a8c:	f9 01       	movw	r30, r18
    1a8e:	71 82       	std	Z+1, r7	; 0x01
    1a90:	60 82       	st	Z, r6
	
	////RULE 6 "if deltaC is smallRight then steering is Left"
	struct rule_element_type if61, then6;
	rule6.if_side = &if61; if61.next = NULL; rule6.then_side = &then6; then6.next = NULL;
    1a92:	2c 5f       	subi	r18, 0xFC	; 252
    1a94:	3f 4f       	sbci	r19, 0xFF	; 255
    1a96:	11 96       	adiw	r26, 0x01	; 1
    1a98:	3c 93       	st	X, r19
    1a9a:	2e 93       	st	-X, r18
    1a9c:	f9 01       	movw	r30, r18
    1a9e:	13 82       	std	Z+3, r1	; 0x03
    1aa0:	12 82       	std	Z+2, r1	; 0x02
    1aa2:	88 5e       	subi	r24, 0xE8	; 232
    1aa4:	9e 4f       	sbci	r25, 0xFE	; 254
    1aa6:	13 96       	adiw	r26, 0x03	; 3
    1aa8:	9c 93       	st	X, r25
    1aaa:	8e 93       	st	-X, r24
    1aac:	12 97       	sbiw	r26, 0x02	; 2
    1aae:	fc 01       	movw	r30, r24
    1ab0:	13 82       	std	Z+3, r1	; 0x03
    1ab2:	12 82       	std	Z+2, r1	; 0x02
	if61.value = &smallRight.value; then6.value = &left.value;
    1ab4:	44 57       	subi	r20, 0x74	; 116
    1ab6:	51 40       	sbci	r21, 0x01	; 1
    1ab8:	f9 01       	movw	r30, r18
    1aba:	51 83       	std	Z+1, r21	; 0x01
    1abc:	40 83       	st	Z, r20
    1abe:	fc 01       	movw	r30, r24
    1ac0:	51 82       	std	Z+1, r5	; 0x01
    1ac2:	40 82       	st	Z, r4
	
	////RULE 7 "if deltaC is farRight then steering is sharpLeft"
	struct rule_element_type if71, then7;
	rule7.if_side = &if71; if71.next = NULL; rule7.then_side = &then7; then7.next = NULL;
    1ac4:	04 96       	adiw	r24, 0x04	; 4
    1ac6:	cd 58       	subi	r28, 0x8D	; 141
    1ac8:	de 4f       	sbci	r29, 0xFE	; 254
    1aca:	99 83       	std	Y+1, r25	; 0x01
    1acc:	88 83       	st	Y, r24
    1ace:	c3 57       	subi	r28, 0x73	; 115
    1ad0:	d1 40       	sbci	r29, 0x01	; 1
    1ad2:	fc 01       	movw	r30, r24
    1ad4:	13 82       	std	Z+3, r1	; 0x03
    1ad6:	12 82       	std	Z+2, r1	; 0x02
    1ad8:	a4 5b       	subi	r26, 0xB4	; 180
    1ada:	bf 4f       	sbci	r27, 0xFF	; 255
    1adc:	cb 58       	subi	r28, 0x8B	; 139
    1ade:	de 4f       	sbci	r29, 0xFE	; 254
    1ae0:	b9 83       	std	Y+1, r27	; 0x01
    1ae2:	a8 83       	st	Y, r26
    1ae4:	c5 57       	subi	r28, 0x75	; 117
    1ae6:	d1 40       	sbci	r29, 0x01	; 1
    1ae8:	13 96       	adiw	r26, 0x03	; 3
    1aea:	1c 92       	st	X, r1
    1aec:	1e 92       	st	-X, r1
    1aee:	12 97       	sbiw	r26, 0x02	; 2
	if71.value = &farRight.value;  then7.value = &sharpLeft.value;
    1af0:	22 59       	subi	r18, 0x92	; 146
    1af2:	31 40       	sbci	r19, 0x01	; 1
    1af4:	31 83       	std	Z+1, r19	; 0x01
    1af6:	20 83       	st	Z, r18
    1af8:	81 ee       	ldi	r24, 0xE1	; 225
    1afa:	90 e0       	ldi	r25, 0x00	; 0
    1afc:	8c 0f       	add	r24, r28
    1afe:	9d 1f       	adc	r25, r29
    1b00:	0a 96       	adiw	r24, 0x0a	; 10
    1b02:	8d 93       	st	X+, r24
    1b04:	9c 93       	st	X, r25
	

	
	
	// the methods performing the FLC
	fuzzification();
    1b06:	ed d8       	rcall	.-3622   	; 0xce2 <fuzzification>
	rule_evaluation();
    1b08:	13 d9       	rcall	.-3546   	; 0xd30 <rule_evaluation>
	defuzzification();
    1b0a:	58 d9       	rcall	.-3408   	; 0xdbc <defuzzification>
	steering.value = steering.value*10;
    1b0c:	f6 01       	movw	r30, r12
    1b0e:	22 85       	ldd	r18, Z+10	; 0x0a
    1b10:	33 85       	ldd	r19, Z+11	; 0x0b
    1b12:	c9 01       	movw	r24, r18
    1b14:	88 0f       	add	r24, r24
    1b16:	99 1f       	adc	r25, r25
    1b18:	22 0f       	add	r18, r18
    1b1a:	33 1f       	adc	r19, r19
    1b1c:	22 0f       	add	r18, r18
    1b1e:	33 1f       	adc	r19, r19
    1b20:	22 0f       	add	r18, r18
    1b22:	33 1f       	adc	r19, r19
    1b24:	82 0f       	add	r24, r18
    1b26:	93 1f       	adc	r25, r19
    1b28:	93 87       	std	Z+11, r25	; 0x0b
    1b2a:	82 87       	std	Z+10, r24	; 0x0a
	if (steering.value < MAXLEFT)
    1b2c:	86 3e       	cpi	r24, 0xE6	; 230
    1b2e:	f7 e0       	ldi	r31, 0x07	; 7
    1b30:	9f 07       	cpc	r25, r31
    1b32:	24 f4       	brge	.+8      	; 0x1b3c <nDoFuzzy+0x5fe>
	{
		setServo(MAXLEFT);
    1b34:	86 ee       	ldi	r24, 0xE6	; 230
    1b36:	97 e0       	ldi	r25, 0x07	; 7
    1b38:	64 d0       	rcall	.+200    	; 0x1c02 <setServo>
    1b3a:	09 c0       	rjmp	.+18     	; 0x1b4e <nDoFuzzy+0x610>
	}
	else if (steering.value >MAXRIGHT)
    1b3c:	85 3e       	cpi	r24, 0xE5	; 229
    1b3e:	2c e0       	ldi	r18, 0x0C	; 12
    1b40:	92 07       	cpc	r25, r18
    1b42:	24 f0       	brlt	.+8      	; 0x1b4c <nDoFuzzy+0x60e>
	{
		setServo(MAXRIGHT);
    1b44:	84 ee       	ldi	r24, 0xE4	; 228
    1b46:	9c e0       	ldi	r25, 0x0C	; 12
    1b48:	5c d0       	rcall	.+184    	; 0x1c02 <setServo>
    1b4a:	01 c0       	rjmp	.+2      	; 0x1b4e <nDoFuzzy+0x610>
	}
	else
	{
		setServo(steering.value);
    1b4c:	5a d0       	rcall	.+180    	; 0x1c02 <setServo>
	}
    
}
    1b4e:	c2 54       	subi	r28, 0x42	; 66
    1b50:	de 4f       	sbci	r29, 0xFE	; 254
    1b52:	0f b6       	in	r0, 0x3f	; 63
    1b54:	f8 94       	cli
    1b56:	de bf       	out	0x3e, r29	; 62
    1b58:	0f be       	out	0x3f, r0	; 63
    1b5a:	cd bf       	out	0x3d, r28	; 61
    1b5c:	df 91       	pop	r29
    1b5e:	cf 91       	pop	r28
    1b60:	1f 91       	pop	r17
    1b62:	0f 91       	pop	r16
    1b64:	ff 90       	pop	r15
    1b66:	ef 90       	pop	r14
    1b68:	df 90       	pop	r13
    1b6a:	cf 90       	pop	r12
    1b6c:	bf 90       	pop	r11
    1b6e:	af 90       	pop	r10
    1b70:	9f 90       	pop	r9
    1b72:	8f 90       	pop	r8
    1b74:	7f 90       	pop	r7
    1b76:	6f 90       	pop	r6
    1b78:	5f 90       	pop	r5
    1b7a:	4f 90       	pop	r4
    1b7c:	3f 90       	pop	r3
    1b7e:	2f 90       	pop	r2
    1b80:	08 95       	ret

00001b82 <nFuzzySteering>:
*
* The fuzzy logic controller is designed to manage the fourth state
*/
void nFuzzySteering(int c, int v)
{
	if ((c == 1) && (v == 81))        // right curvature, turn right
    1b82:	81 30       	cpi	r24, 0x01	; 1
    1b84:	91 05       	cpc	r25, r1
    1b86:	39 f4       	brne	.+14     	; 0x1b96 <nFuzzySteering+0x14>
    1b88:	61 35       	cpi	r22, 0x51	; 81
    1b8a:	71 05       	cpc	r23, r1
    1b8c:	71 f4       	brne	.+28     	; 0x1baa <nFuzzySteering+0x28>
	{
		setServo(MAXRIGHT-100);
    1b8e:	80 e8       	ldi	r24, 0x80	; 128
    1b90:	9c e0       	ldi	r25, 0x0C	; 12
    1b92:	37 c0       	rjmp	.+110    	; 0x1c02 <setServo>
    1b94:	08 95       	ret
	}
	else if ((c == 2) && (v == 81))       // left curvature, turn left
    1b96:	82 30       	cpi	r24, 0x02	; 2
    1b98:	91 05       	cpc	r25, r1
    1b9a:	39 f4       	brne	.+14     	; 0x1baa <nFuzzySteering+0x28>
    1b9c:	61 35       	cpi	r22, 0x51	; 81
    1b9e:	71 05       	cpc	r23, r1
    1ba0:	21 f4       	brne	.+8      	; 0x1baa <nFuzzySteering+0x28>
	{
		setServo(MAXLEFT+100);
    1ba2:	8a e4       	ldi	r24, 0x4A	; 74
    1ba4:	98 e0       	ldi	r25, 0x08	; 8
    1ba6:	2d c0       	rjmp	.+90     	; 0x1c02 <setServo>
    1ba8:	08 95       	ret
	}
	else                                   // straight road, do fuzzy
	{
		nDoFuzzy(c,v);
    1baa:	c9 cc       	rjmp	.-1646   	; 0x153e <nDoFuzzy>
    1bac:	08 95       	ret

00001bae <pwmInit>:
 * The formula of pwm length with current counter register settings:
 * pwm_length = counterValue/1843
*/
void pwmInit(void)
{
	DDRD = (1<<DDD5)|(1<<DDD4);
    1bae:	80 e3       	ldi	r24, 0x30	; 48
    1bb0:	8a b9       	out	0x0a, r24	; 10
	TCCR1A = (1<<WGM11)|(1<<COM1A1)|(1<<COM1B1);
    1bb2:	82 ea       	ldi	r24, 0xA2	; 162
    1bb4:	80 93 80 00 	sts	0x0080, r24
	ICR1 = 36863;
    1bb8:	8f ef       	ldi	r24, 0xFF	; 255
    1bba:	9f e8       	ldi	r25, 0x8F	; 143
    1bbc:	90 93 87 00 	sts	0x0087, r25
    1bc0:	80 93 86 00 	sts	0x0086, r24
	TCCR1B = (1<<CS11)|(1<<WGM12)|(1<<WGM13);
    1bc4:	8a e1       	ldi	r24, 0x1A	; 26
    1bc6:	80 93 81 00 	sts	0x0081, r24
    1bca:	08 95       	ret

00001bcc <setESC>:
 * Input values outside of the valid interval are forced to the lower/upper limit
 * @param int counterEsc sets the upper limit to the 16-bit counter1 in the processor
*/
void setESC(int counterEsc){
	
	if(counterEsc <= MINESC)
    1bcc:	80 36       	cpi	r24, 0x60	; 96
    1bce:	2a e0       	ldi	r18, 0x0A	; 10
    1bd0:	92 07       	cpc	r25, r18
    1bd2:	3c f4       	brge	.+14     	; 0x1be2 <setESC+0x16>
	{
		OCR1A = MINESC;
    1bd4:	8f e5       	ldi	r24, 0x5F	; 95
    1bd6:	9a e0       	ldi	r25, 0x0A	; 10
    1bd8:	90 93 89 00 	sts	0x0089, r25
    1bdc:	80 93 88 00 	sts	0x0088, r24
    1be0:	08 95       	ret
	}
	else if  (counterEsc >= MAXESC)
    1be2:	82 32       	cpi	r24, 0x22	; 34
    1be4:	2b e0       	ldi	r18, 0x0B	; 11
    1be6:	92 07       	cpc	r25, r18
    1be8:	3c f0       	brlt	.+14     	; 0x1bf8 <setESC+0x2c>
	{
		OCR1A = MAXESC;
    1bea:	82 e2       	ldi	r24, 0x22	; 34
    1bec:	9b e0       	ldi	r25, 0x0B	; 11
    1bee:	90 93 89 00 	sts	0x0089, r25
    1bf2:	80 93 88 00 	sts	0x0088, r24
    1bf6:	08 95       	ret
	} else {
		OCR1A = counterEsc;
    1bf8:	90 93 89 00 	sts	0x0089, r25
    1bfc:	80 93 88 00 	sts	0x0088, r24
    1c00:	08 95       	ret

00001c02 <setServo>:
*/
void setServo (int counterServo)
{
	
	
	if (counterServo >= MAXRIGHT){
    1c02:	84 3e       	cpi	r24, 0xE4	; 228
    1c04:	2c e0       	ldi	r18, 0x0C	; 12
    1c06:	92 07       	cpc	r25, r18
    1c08:	3c f0       	brlt	.+14     	; 0x1c18 <setServo+0x16>
		
		OCR1B = MAXRIGHT;
    1c0a:	84 ee       	ldi	r24, 0xE4	; 228
    1c0c:	9c e0       	ldi	r25, 0x0C	; 12
    1c0e:	90 93 8b 00 	sts	0x008B, r25
    1c12:	80 93 8a 00 	sts	0x008A, r24
    1c16:	08 95       	ret
		
	}	else if (counterServo <= MAXLEFT){
    1c18:	87 3e       	cpi	r24, 0xE7	; 231
    1c1a:	27 e0       	ldi	r18, 0x07	; 7
    1c1c:	92 07       	cpc	r25, r18
    1c1e:	3c f4       	brge	.+14     	; 0x1c2e <setServo+0x2c>

		OCR1B = MAXLEFT;
    1c20:	86 ee       	ldi	r24, 0xE6	; 230
    1c22:	97 e0       	ldi	r25, 0x07	; 7
    1c24:	90 93 8b 00 	sts	0x008B, r25
    1c28:	80 93 8a 00 	sts	0x008A, r24
    1c2c:	08 95       	ret
		
	} else {
		OCR1B = counterServo;
    1c2e:	90 93 8b 00 	sts	0x008B, r25
    1c32:	80 93 8a 00 	sts	0x008A, r24
    1c36:	08 95       	ret

00001c38 <__vector_19>:
spi_buffer_typedef rx_spi = {{0}, 0 , 0 ,0}; //declaring a receive buffer
spi_buffer_typedef tx_spi = {{0}, 0 , 0 ,0}; //declaring a transmit buffer

unsigned char spi_stc_chain_in_work = 0;

ISR(SPI_STC_vect){
    1c38:	1f 92       	push	r1
    1c3a:	0f 92       	push	r0
    1c3c:	0f b6       	in	r0, 0x3f	; 63
    1c3e:	0f 92       	push	r0
    1c40:	11 24       	eor	r1, r1
    1c42:	0b b6       	in	r0, 0x3b	; 59
    1c44:	0f 92       	push	r0
    1c46:	2f 93       	push	r18
    1c48:	3f 93       	push	r19
    1c4a:	8f 93       	push	r24
    1c4c:	9f 93       	push	r25
    1c4e:	af 93       	push	r26
    1c50:	bf 93       	push	r27
    1c52:	ef 93       	push	r30
    1c54:	ff 93       	push	r31


	
	//Turn PORTA0 to low so master can detect rising edge
	PORTA &= ~(1<<PORTA0);
    1c56:	10 98       	cbi	0x02, 0	; 2
	
	unsigned char in_value;
	
	//reading value from SPDR
	in_value = SPDR;
    1c58:	2e b5       	in	r18, 0x2e	; 46
	
	//if scrap value -> ignore
	//if not scrap value -> read the byte to rx-buffer
	if(in_value != 0xFD){
    1c5a:	2d 3f       	cpi	r18, 0xFD	; 253
    1c5c:	a9 f0       	breq	.+42     	; 0x1c88 <__vector_19+0x50>
		
		rx_spi.buffer[rx_spi.i_last] = in_value;
    1c5e:	e8 e8       	ldi	r30, 0x88	; 136
    1c60:	f2 e0       	ldi	r31, 0x02	; 2
    1c62:	80 81       	ld	r24, Z
    1c64:	91 81       	ldd	r25, Z+1	; 0x01
    1c66:	dc 01       	movw	r26, r24
    1c68:	aa 5b       	subi	r26, 0xBA	; 186
    1c6a:	bd 4f       	sbci	r27, 0xFD	; 253
    1c6c:	2c 93       	st	X, r18
		rx_spi.i_last++;
    1c6e:	01 96       	adiw	r24, 0x01	; 1
    1c70:	91 83       	std	Z+1, r25	; 0x01
    1c72:	80 83       	st	Z, r24
		rx_spi.num_bytes++;
    1c74:	ea e8       	ldi	r30, 0x8A	; 138
    1c76:	f2 e0       	ldi	r31, 0x02	; 2
    1c78:	80 81       	ld	r24, Z
    1c7a:	91 81       	ldd	r25, Z+1	; 0x01
    1c7c:	01 96       	adiw	r24, 0x01	; 1
    1c7e:	91 83       	std	Z+1, r25	; 0x01
    1c80:	80 83       	st	Z, r24
		spi_rx_not_empty_flag = 1;
    1c82:	81 e0       	ldi	r24, 0x01	; 1
    1c84:	80 93 fe 01 	sts	0x01FE, r24
	}
	
	//Turnover for i_last
	if(rx_spi.i_last == SPI_BUFFER_SIZE){
    1c88:	80 91 88 02 	lds	r24, 0x0288
    1c8c:	90 91 89 02 	lds	r25, 0x0289
    1c90:	80 34       	cpi	r24, 0x40	; 64
    1c92:	91 05       	cpc	r25, r1
    1c94:	21 f4       	brne	.+8      	; 0x1c9e <__vector_19+0x66>
		
		rx_spi.i_last = 0;
    1c96:	10 92 89 02 	sts	0x0289, r1
    1c9a:	10 92 88 02 	sts	0x0288, r1
	}
	
	//if there is something to send, put the value in SPDR and set PORTA0 to high (handshake)
	if(tx_spi.num_bytes > 0){
    1c9e:	80 91 44 02 	lds	r24, 0x0244
    1ca2:	90 91 45 02 	lds	r25, 0x0245
    1ca6:	89 2b       	or	r24, r25
    1ca8:	01 f1       	breq	.+64     	; 0x1cea <__vector_19+0xb2>
	
		SPDR = tx_spi.buffer[tx_spi.i_first];
    1caa:	e0 91 40 02 	lds	r30, 0x0240
    1cae:	f0 91 41 02 	lds	r31, 0x0241
    1cb2:	e0 50       	subi	r30, 0x00	; 0
    1cb4:	fe 4f       	sbci	r31, 0xFE	; 254
    1cb6:	80 81       	ld	r24, Z
    1cb8:	8e bd       	out	0x2e, r24	; 46
		tx_spi.i_first++;
    1cba:	e0 e4       	ldi	r30, 0x40	; 64
    1cbc:	f2 e0       	ldi	r31, 0x02	; 2
    1cbe:	80 81       	ld	r24, Z
    1cc0:	91 81       	ldd	r25, Z+1	; 0x01
    1cc2:	01 96       	adiw	r24, 0x01	; 1
    1cc4:	91 83       	std	Z+1, r25	; 0x01
    1cc6:	80 83       	st	Z, r24
		tx_spi.num_bytes--;
    1cc8:	e4 e4       	ldi	r30, 0x44	; 68
    1cca:	f2 e0       	ldi	r31, 0x02	; 2
    1ccc:	20 81       	ld	r18, Z
    1cce:	31 81       	ldd	r19, Z+1	; 0x01
    1cd0:	21 50       	subi	r18, 0x01	; 1
    1cd2:	31 09       	sbc	r19, r1
    1cd4:	31 83       	std	Z+1, r19	; 0x01
    1cd6:	20 83       	st	Z, r18
		
		PORTA |= (1<<PORTA0);
    1cd8:	10 9a       	sbi	0x02, 0	; 2
		
		if(tx_spi.i_first == SPI_BUFFER_SIZE){
    1cda:	80 34       	cpi	r24, 0x40	; 64
    1cdc:	91 05       	cpc	r25, r1
    1cde:	49 f4       	brne	.+18     	; 0x1cf2 <__vector_19+0xba>
			
			tx_spi.i_first = 0;
    1ce0:	10 92 41 02 	sts	0x0241, r1
    1ce4:	10 92 40 02 	sts	0x0240, r1
    1ce8:	04 c0       	rjmp	.+8      	; 0x1cf2 <__vector_19+0xba>
	}
	
	else{  //if tx_spi.num_bytes == 0
		
		//put scrap in SPDR
		SPDR = 0xFD;
    1cea:	8d ef       	ldi	r24, 0xFD	; 253
    1cec:	8e bd       	out	0x2e, r24	; 46
		spi_stc_chain_in_work = 0;
    1cee:	10 92 ff 01 	sts	0x01FF, r1
		
	} 	
	

}
    1cf2:	ff 91       	pop	r31
    1cf4:	ef 91       	pop	r30
    1cf6:	bf 91       	pop	r27
    1cf8:	af 91       	pop	r26
    1cfa:	9f 91       	pop	r25
    1cfc:	8f 91       	pop	r24
    1cfe:	3f 91       	pop	r19
    1d00:	2f 91       	pop	r18
    1d02:	0f 90       	pop	r0
    1d04:	0b be       	out	0x3b, r0	; 59
    1d06:	0f 90       	pop	r0
    1d08:	0f be       	out	0x3f, r0	; 63
    1d0a:	0f 90       	pop	r0
    1d0c:	1f 90       	pop	r1
    1d0e:	18 95       	reti

00001d10 <spi_slave_init>:
	
	
void spi_slave_init(void){
	
	//Set MISO output, all others input, DDPB6= MISO
	DDRB = (1<<DDB6);
    1d10:	80 e4       	ldi	r24, 0x40	; 64
    1d12:	84 b9       	out	0x04, r24	; 4
	//Enable SPI and enable SPI_STC interrupt
	SPCR = (1<<SPE) | (1<<SPIE) |  (0<<MSTR);
    1d14:	80 ec       	ldi	r24, 0xC0	; 192
    1d16:	8c bd       	out	0x2c, r24	; 44
	//Setting PORTA0 as output and set it to low, so master can detect rising edge
	DDRA |= (1<<PORTA0);
    1d18:	08 9a       	sbi	0x01, 0	; 1
	PORTA &= ~(1<<PORTA0);
    1d1a:	10 98       	cbi	0x02, 0	; 2
	
	SPDR = 0xFD;
    1d1c:	8d ef       	ldi	r24, 0xFD	; 253
    1d1e:	8e bd       	out	0x2e, r24	; 46
    1d20:	08 95       	ret

00001d22 <spi_get_byte>:
	*/
	
	//if there is no data, value returned will be 0xFE
	unsigned char value = 0xFE;
	
	cli();
    1d22:	f8 94       	cli
	//If data in buffer exists, read to value
	if(rx_spi.num_bytes > 0){
    1d24:	20 91 8a 02 	lds	r18, 0x028A
    1d28:	30 91 8b 02 	lds	r19, 0x028B
    1d2c:	21 15       	cp	r18, r1
    1d2e:	31 05       	cpc	r19, r1
    1d30:	a9 f0       	breq	.+42     	; 0x1d5c <spi_get_byte+0x3a>

		value = rx_spi.buffer[rx_spi.i_first];
    1d32:	e6 e8       	ldi	r30, 0x86	; 134
    1d34:	f2 e0       	ldi	r31, 0x02	; 2
    1d36:	40 81       	ld	r20, Z
    1d38:	51 81       	ldd	r21, Z+1	; 0x01
    1d3a:	da 01       	movw	r26, r20
    1d3c:	aa 5b       	subi	r26, 0xBA	; 186
    1d3e:	bd 4f       	sbci	r27, 0xFD	; 253
    1d40:	8c 91       	ld	r24, X
		rx_spi.i_first++;
    1d42:	4f 5f       	subi	r20, 0xFF	; 255
    1d44:	5f 4f       	sbci	r21, 0xFF	; 255
    1d46:	51 83       	std	Z+1, r21	; 0x01
    1d48:	40 83       	st	Z, r20
		rx_spi.num_bytes--;
    1d4a:	21 50       	subi	r18, 0x01	; 1
    1d4c:	31 09       	sbc	r19, r1
    1d4e:	30 93 8b 02 	sts	0x028B, r19
    1d52:	20 93 8a 02 	sts	0x028A, r18
	}
	
	if(rx_spi.num_bytes == 0){
    1d56:	23 2b       	or	r18, r19
    1d58:	21 f4       	brne	.+8      	; 0x1d62 <spi_get_byte+0x40>
    1d5a:	01 c0       	rjmp	.+2      	; 0x1d5e <spi_get_byte+0x3c>
	*otherwise, it will return null
	*FIFO ring-buffer
	*/
	
	//if there is no data, value returned will be 0xFE
	unsigned char value = 0xFE;
    1d5c:	8e ef       	ldi	r24, 0xFE	; 254
		rx_spi.i_first++;
		rx_spi.num_bytes--;
	}
	
	if(rx_spi.num_bytes == 0){
		spi_rx_not_empty_flag = 0;
    1d5e:	10 92 fe 01 	sts	0x01FE, r1
	}
	
	
	//turnover for i_first
	if(rx_spi.i_first == SPI_BUFFER_SIZE){
    1d62:	20 91 86 02 	lds	r18, 0x0286
    1d66:	30 91 87 02 	lds	r19, 0x0287
    1d6a:	20 34       	cpi	r18, 0x40	; 64
    1d6c:	31 05       	cpc	r19, r1
    1d6e:	21 f4       	brne	.+8      	; 0x1d78 <spi_get_byte+0x56>
		rx_spi.i_first = 0;
    1d70:	10 92 87 02 	sts	0x0287, r1
    1d74:	10 92 86 02 	sts	0x0286, r1
	}
	

	sei();
    1d78:	78 94       	sei
	
	return value;
	
		
}
    1d7a:	08 95       	ret

00001d7c <spi_send_byte>:

void spi_send_byte(unsigned char value){
	
	cli();
    1d7c:	f8 94       	cli
	
	//if there is space in tx-buffer, put value in it.
	if (tx_spi.num_bytes < SPI_BUFFER_SIZE){	//if there is room in the buffer
    1d7e:	20 91 44 02 	lds	r18, 0x0244
    1d82:	30 91 45 02 	lds	r19, 0x0245
    1d86:	20 34       	cpi	r18, 0x40	; 64
    1d88:	31 05       	cpc	r19, r1
    1d8a:	90 f4       	brcc	.+36     	; 0x1db0 <spi_send_byte+0x34>
			
		tx_spi.buffer[tx_spi.i_last] = value; //data transfer to buffer
    1d8c:	e2 e4       	ldi	r30, 0x42	; 66
    1d8e:	f2 e0       	ldi	r31, 0x02	; 2
    1d90:	40 81       	ld	r20, Z
    1d92:	51 81       	ldd	r21, Z+1	; 0x01
    1d94:	da 01       	movw	r26, r20
    1d96:	a0 50       	subi	r26, 0x00	; 0
    1d98:	be 4f       	sbci	r27, 0xFE	; 254
    1d9a:	8c 93       	st	X, r24
		tx_spi.i_last++;			//inc index of most recent
    1d9c:	4f 5f       	subi	r20, 0xFF	; 255
    1d9e:	5f 4f       	sbci	r21, 0xFF	; 255
    1da0:	51 83       	std	Z+1, r21	; 0x01
    1da2:	40 83       	st	Z, r20
		tx_spi.num_bytes++;		//inc number of bytes in buffer
    1da4:	2f 5f       	subi	r18, 0xFF	; 255
    1da6:	3f 4f       	sbci	r19, 0xFF	; 255
    1da8:	30 93 45 02 	sts	0x0245, r19
    1dac:	20 93 44 02 	sts	0x0244, r18
	}
		
	//index turn-around
	if(tx_spi.i_last == SPI_BUFFER_SIZE){
    1db0:	80 91 42 02 	lds	r24, 0x0242
    1db4:	90 91 43 02 	lds	r25, 0x0243
    1db8:	80 34       	cpi	r24, 0x40	; 64
    1dba:	91 05       	cpc	r25, r1
    1dbc:	21 f4       	brne	.+8      	; 0x1dc6 <spi_send_byte+0x4a>
		tx_spi.i_last = 0;
    1dbe:	10 92 43 02 	sts	0x0243, r1
    1dc2:	10 92 42 02 	sts	0x0242, r1
	
			
	//if there is only one byte in buffer, no SPI_STC is "in work"
	//Therefore, it is started by adding the byte to SPDR and requesting a send to master
	//PORTA0 is first set to low, so Master can detect rising edge
	if(tx_spi.num_bytes == 1 && !(spi_stc_chain_in_work)){
    1dc6:	80 91 44 02 	lds	r24, 0x0244
    1dca:	90 91 45 02 	lds	r25, 0x0245
    1dce:	01 97       	sbiw	r24, 0x01	; 1
    1dd0:	f9 f4       	brne	.+62     	; 0x1e10 <spi_send_byte+0x94>
    1dd2:	80 91 ff 01 	lds	r24, 0x01FF
    1dd6:	81 11       	cpse	r24, r1
    1dd8:	1b c0       	rjmp	.+54     	; 0x1e10 <spi_send_byte+0x94>
		
		PORTA &= ~(1<<PORTA0); //TEST
    1dda:	10 98       	cbi	0x02, 0	; 2
		
		SPDR = tx_spi.buffer[tx_spi.i_first];
    1ddc:	e0 91 40 02 	lds	r30, 0x0240
    1de0:	f0 91 41 02 	lds	r31, 0x0241
    1de4:	e0 50       	subi	r30, 0x00	; 0
    1de6:	fe 4f       	sbci	r31, 0xFE	; 254
    1de8:	80 81       	ld	r24, Z
    1dea:	8e bd       	out	0x2e, r24	; 46
		tx_spi.i_first++;
    1dec:	e0 e4       	ldi	r30, 0x40	; 64
    1dee:	f2 e0       	ldi	r31, 0x02	; 2
    1df0:	80 81       	ld	r24, Z
    1df2:	91 81       	ldd	r25, Z+1	; 0x01
    1df4:	01 96       	adiw	r24, 0x01	; 1
    1df6:	91 83       	std	Z+1, r25	; 0x01
    1df8:	80 83       	st	Z, r24
		tx_spi.num_bytes--;
    1dfa:	e4 e4       	ldi	r30, 0x44	; 68
    1dfc:	f2 e0       	ldi	r31, 0x02	; 2
    1dfe:	80 81       	ld	r24, Z
    1e00:	91 81       	ldd	r25, Z+1	; 0x01
    1e02:	01 97       	sbiw	r24, 0x01	; 1
    1e04:	91 83       	std	Z+1, r25	; 0x01
    1e06:	80 83       	st	Z, r24
		PORTA |= (1<<PORTA0);
    1e08:	10 9a       	sbi	0x02, 0	; 2
		spi_stc_chain_in_work = 1;
    1e0a:	81 e0       	ldi	r24, 0x01	; 1
    1e0c:	80 93 ff 01 	sts	0x01FF, r24
	}
			
	//index turn-around
	if(tx_spi.i_first == SPI_BUFFER_SIZE){
    1e10:	80 91 40 02 	lds	r24, 0x0240
    1e14:	90 91 41 02 	lds	r25, 0x0241
    1e18:	80 34       	cpi	r24, 0x40	; 64
    1e1a:	91 05       	cpc	r25, r1
    1e1c:	21 f4       	brne	.+8      	; 0x1e26 <spi_send_byte+0xaa>
		tx_spi.i_first = 0;
    1e1e:	10 92 41 02 	sts	0x0241, r1
    1e22:	10 92 40 02 	sts	0x0240, r1
	}
			
			

	sei();
    1e26:	78 94       	sei
    1e28:	08 95       	ret

00001e2a <is_package_recieved>:
}


unsigned char is_package_recieved(void){
	
	if (rx_spi.num_bytes < (RECEIVED_PACKAGE_SIZE)){
    1e2a:	81 e0       	ldi	r24, 0x01	; 1
    1e2c:	20 91 8a 02 	lds	r18, 0x028A
    1e30:	30 91 8b 02 	lds	r19, 0x028B
    1e34:	2b 30       	cpi	r18, 0x0B	; 11
    1e36:	31 05       	cpc	r19, r1
    1e38:	08 f4       	brcc	.+2      	; 0x1e3c <is_package_recieved+0x12>
    1e3a:	80 e0       	ldi	r24, 0x00	; 0
		return 0;
	}
	
	return 1;
}
    1e3c:	08 95       	ret

00001e3e <read_sensor_info>:


//returns true (i.e. >0) if succesfull, false (==0) else
//Also deletes all bytes before header byte, in order to reach header byte. Therefore, it is important to only call this function when is_package_recieved() is true.
unsigned char read_sensor_info(unsigned char* control_mode_ptr, struct Sensor_information* sens_info_ptr){
    1e3e:	0f 93       	push	r16
    1e40:	1f 93       	push	r17
    1e42:	cf 93       	push	r28
    1e44:	df 93       	push	r29
    1e46:	8c 01       	movw	r16, r24
    1e48:	eb 01       	movw	r28, r22
	
	//If no bytes to get, return "failure"
	if(!(rx_spi.num_bytes)){
    1e4a:	20 91 8a 02 	lds	r18, 0x028A
    1e4e:	30 91 8b 02 	lds	r19, 0x028B
    1e52:	23 2b       	or	r18, r19
    1e54:	61 f1       	breq	.+88     	; 0x1eae <read_sensor_info+0x70>
		return 0;
	}
	
	//First check if header-byte first in buffer and if enough bytes for a package to be recieved
	if( (rx_spi.buffer[rx_spi.i_first] == 0xFF) && (is_package_recieved())){
    1e56:	e0 91 86 02 	lds	r30, 0x0286
    1e5a:	f0 91 87 02 	lds	r31, 0x0287
    1e5e:	ea 5b       	subi	r30, 0xBA	; 186
    1e60:	fd 4f       	sbci	r31, 0xFD	; 253
    1e62:	80 81       	ld	r24, Z
    1e64:	8f 3f       	cpi	r24, 0xFF	; 255
    1e66:	d9 f4       	brne	.+54     	; 0x1e9e <read_sensor_info+0x60>
    1e68:	e0 df       	rcall	.-64     	; 0x1e2a <is_package_recieved>
    1e6a:	88 23       	and	r24, r24
    1e6c:	11 f1       	breq	.+68     	; 0x1eb2 <read_sensor_info+0x74>
		
		//dont use header byte
		unsigned char temp_for_header;
		temp_for_header = spi_get_byte();
    1e6e:	59 df       	rcall	.-334    	; 0x1d22 <spi_get_byte>
		
		
		//Read all info and write it to sensor struct

		*control_mode_ptr = spi_get_byte();
    1e70:	58 df       	rcall	.-336    	; 0x1d22 <spi_get_byte>
    1e72:	f8 01       	movw	r30, r16
    1e74:	80 83       	st	Z, r24
		sens_info_ptr->dist_right_line = spi_get_byte();
    1e76:	55 df       	rcall	.-342    	; 0x1d22 <spi_get_byte>
    1e78:	88 83       	st	Y, r24
		sens_info_ptr->angular_diff = spi_get_byte();
    1e7a:	53 df       	rcall	.-346    	; 0x1d22 <spi_get_byte>
    1e7c:	89 83       	std	Y+1, r24	; 0x01
		sens_info_ptr->dist_sonic_middle = spi_get_byte();
    1e7e:	51 df       	rcall	.-350    	; 0x1d22 <spi_get_byte>
    1e80:	8a 83       	std	Y+2, r24	; 0x02
		sens_info_ptr->dist_sonic_left = spi_get_byte();
    1e82:	4f df       	rcall	.-354    	; 0x1d22 <spi_get_byte>
    1e84:	8b 83       	std	Y+3, r24	; 0x03
		sens_info_ptr->dist_sonic_right = spi_get_byte();
    1e86:	4d df       	rcall	.-358    	; 0x1d22 <spi_get_byte>
    1e88:	8c 83       	std	Y+4, r24	; 0x04
		sens_info_ptr->dist_sonic_back = spi_get_byte();
    1e8a:	4b df       	rcall	.-362    	; 0x1d22 <spi_get_byte>
    1e8c:	8d 83       	std	Y+5, r24	; 0x05
		sens_info_ptr->angle = spi_get_byte();
    1e8e:	49 df       	rcall	.-366    	; 0x1d22 <spi_get_byte>
    1e90:	8f 83       	std	Y+7, r24	; 0x07
		sens_info_ptr->next_turn_decision = spi_get_byte();
    1e92:	47 df       	rcall	.-370    	; 0x1d22 <spi_get_byte>
    1e94:	89 87       	std	Y+9, r24	; 0x09
		sens_info_ptr->dist_to_stop_line = spi_get_byte();
    1e96:	45 df       	rcall	.-374    	; 0x1d22 <spi_get_byte>
    1e98:	88 87       	std	Y+8, r24	; 0x08
		//sens_info_ptr->sign_type = spi_get_byte();
		
		
		return 1;
    1e9a:	81 e0       	ldi	r24, 0x01	; 1
    1e9c:	0d c0       	rjmp	.+26     	; 0x1eb8 <read_sensor_info+0x7a>
	} else if (is_package_recieved()){
    1e9e:	c5 df       	rcall	.-118    	; 0x1e2a <is_package_recieved>
    1ea0:	88 23       	and	r24, r24
    1ea2:	49 f0       	breq	.+18     	; 0x1eb6 <read_sensor_info+0x78>
		
		//if there are bytes before header byte, throw them away. Then go into read_sensor_info again to check wheter there
		//is something to read or not. The return value is evaluated by the last read_sensor_info.
		unsigned char temp_scrap;
		temp_scrap = spi_get_byte();
    1ea4:	3e df       	rcall	.-388    	; 0x1d22 <spi_get_byte>
		return read_sensor_info(control_mode_ptr, sens_info_ptr);
    1ea6:	be 01       	movw	r22, r28
    1ea8:	c8 01       	movw	r24, r16
    1eaa:	c9 df       	rcall	.-110    	; 0x1e3e <read_sensor_info>
    1eac:	05 c0       	rjmp	.+10     	; 0x1eb8 <read_sensor_info+0x7a>
//Also deletes all bytes before header byte, in order to reach header byte. Therefore, it is important to only call this function when is_package_recieved() is true.
unsigned char read_sensor_info(unsigned char* control_mode_ptr, struct Sensor_information* sens_info_ptr){
	
	//If no bytes to get, return "failure"
	if(!(rx_spi.num_bytes)){
		return 0;
    1eae:	80 e0       	ldi	r24, 0x00	; 0
    1eb0:	03 c0       	rjmp	.+6      	; 0x1eb8 <read_sensor_info+0x7a>
		return read_sensor_info(control_mode_ptr, sens_info_ptr);
	}
	
	
	//if reaches this point, there are is a header byte but not enough of bytes to read
	return 0;
    1eb2:	80 e0       	ldi	r24, 0x00	; 0
    1eb4:	01 c0       	rjmp	.+2      	; 0x1eb8 <read_sensor_info+0x7a>
    1eb6:	80 e0       	ldi	r24, 0x00	; 0
	
    1eb8:	df 91       	pop	r29
    1eba:	cf 91       	pop	r28
    1ebc:	1f 91       	pop	r17
    1ebe:	0f 91       	pop	r16
    1ec0:	08 95       	ret

00001ec2 <stop>:


void stop()
{
    
    if (step==0)
    1ec2:	80 91 19 03 	lds	r24, 0x0319
    1ec6:	81 11       	cpse	r24, r1
    1ec8:	07 c0       	rjmp	.+14     	; 0x1ed8 <stop+0x16>
    {
        setESC(2840);
    1eca:	88 e1       	ldi	r24, 0x18	; 24
    1ecc:	9b e0       	ldi	r25, 0x0B	; 11
    1ece:	7e de       	rcall	.-772    	; 0x1bcc <setESC>
        setServo(MAXRIGHT);
    1ed0:	84 ee       	ldi	r24, 0xE4	; 228
    1ed2:	9c e0       	ldi	r25, 0x0C	; 12
    1ed4:	96 ce       	rjmp	.-724    	; 0x1c02 <setServo>
    1ed6:	08 95       	ret
    }
    else if (step==1)
    1ed8:	80 91 19 03 	lds	r24, 0x0319
    1edc:	81 30       	cpi	r24, 0x01	; 1
    1ede:	51 f4       	brne	.+20     	; 0x1ef4 <stop+0x32>
    {
		OCR3A = 1000;
    1ee0:	88 ee       	ldi	r24, 0xE8	; 232
    1ee2:	93 e0       	ldi	r25, 0x03	; 3
    1ee4:	90 93 99 00 	sts	0x0099, r25
    1ee8:	80 93 98 00 	sts	0x0098, r24
		setServo(STRAIGHT);
    1eec:	8e e1       	ldi	r24, 0x1E	; 30
    1eee:	9a e0       	ldi	r25, 0x0A	; 10
    1ef0:	88 ce       	rjmp	.-752    	; 0x1c02 <setServo>
    1ef2:	08 95       	ret
	}
	else if (step ==2)
    1ef4:	80 91 19 03 	lds	r24, 0x0319
    1ef8:	82 30       	cpi	r24, 0x02	; 2
    1efa:	51 f4       	brne	.+20     	; 0x1f10 <stop+0x4e>
	{
		OCR3A = 28000;
    1efc:	80 e6       	ldi	r24, 0x60	; 96
    1efe:	9d e6       	ldi	r25, 0x6D	; 109
    1f00:	90 93 99 00 	sts	0x0099, r25
    1f04:	80 93 98 00 	sts	0x0098, r24
        setServo(MAXLEFT);
    1f08:	86 ee       	ldi	r24, 0xE6	; 230
    1f0a:	97 e0       	ldi	r25, 0x07	; 7
    1f0c:	7a ce       	rjmp	.-780    	; 0x1c02 <setServo>
    1f0e:	08 95       	ret
    }
    else if (step==3)
    1f10:	80 91 19 03 	lds	r24, 0x0319
    1f14:	83 30       	cpi	r24, 0x03	; 3
    1f16:	69 f4       	brne	.+26     	; 0x1f32 <stop+0x70>
    {
        setESC(NEUTRAL);
    1f18:	8d ec       	ldi	r24, 0xCD	; 205
    1f1a:	9a e0       	ldi	r25, 0x0A	; 10
    1f1c:	57 de       	rcall	.-850    	; 0x1bcc <setESC>
        setServo(STRAIGHT);
    1f1e:	8e e1       	ldi	r24, 0x1E	; 30
    1f20:	9a e0       	ldi	r25, 0x0A	; 10
    1f22:	6f de       	rcall	.-802    	; 0x1c02 <setServo>
		OCR3A = 14399;
    1f24:	8f e3       	ldi	r24, 0x3F	; 63
    1f26:	98 e3       	ldi	r25, 0x38	; 56
    1f28:	90 93 99 00 	sts	0x0099, r25
    1f2c:	80 93 98 00 	sts	0x0098, r24
    1f30:	08 95       	ret
    }
    else if (step==4)
    1f32:	80 91 19 03 	lds	r24, 0x0319
    1f36:	84 30       	cpi	r24, 0x04	; 4
    1f38:	69 f4       	brne	.+26     	; 0x1f54 <stop+0x92>
    {
		OCR3A = 33000;
    1f3a:	88 ee       	ldi	r24, 0xE8	; 232
    1f3c:	90 e8       	ldi	r25, 0x80	; 128
    1f3e:	90 93 99 00 	sts	0x0099, r25
    1f42:	80 93 98 00 	sts	0x0098, r24
        setESC(2840);
    1f46:	88 e1       	ldi	r24, 0x18	; 24
    1f48:	9b e0       	ldi	r25, 0x0B	; 11
    1f4a:	40 de       	rcall	.-896    	; 0x1bcc <setESC>
        setServo(MAXLEFT);
    1f4c:	86 ee       	ldi	r24, 0xE6	; 230
    1f4e:	97 e0       	ldi	r25, 0x07	; 7
    1f50:	58 ce       	rjmp	.-848    	; 0x1c02 <setServo>
    1f52:	08 95       	ret
    }
	else if (step==5)
    1f54:	80 91 19 03 	lds	r24, 0x0319
    1f58:	85 30       	cpi	r24, 0x05	; 5
    1f5a:	51 f4       	brne	.+20     	; 0x1f70 <stop+0xae>
	{
		OCR3A = 28000;
    1f5c:	80 e6       	ldi	r24, 0x60	; 96
    1f5e:	9d e6       	ldi	r25, 0x6D	; 109
    1f60:	90 93 99 00 	sts	0x0099, r25
    1f64:	80 93 98 00 	sts	0x0098, r24
		setServo(MAXRIGHT);
    1f68:	84 ee       	ldi	r24, 0xE4	; 228
    1f6a:	9c e0       	ldi	r25, 0x0C	; 12
    1f6c:	4a ce       	rjmp	.-876    	; 0x1c02 <setServo>
    1f6e:	08 95       	ret
	}
	else if (step==6)
    1f70:	80 91 19 03 	lds	r24, 0x0319
    1f74:	86 30       	cpi	r24, 0x06	; 6
    1f76:	51 f4       	brne	.+20     	; 0x1f8c <stop+0xca>
	{
		setServo(STRAIGHT);
    1f78:	8e e1       	ldi	r24, 0x1E	; 30
    1f7a:	9a e0       	ldi	r25, 0x0A	; 10
    1f7c:	42 de       	rcall	.-892    	; 0x1c02 <setServo>
		OCR3A = 14399;
    1f7e:	8f e3       	ldi	r24, 0x3F	; 63
    1f80:	98 e3       	ldi	r25, 0x38	; 56
    1f82:	90 93 99 00 	sts	0x0099, r25
    1f86:	80 93 98 00 	sts	0x0098, r24
    1f8a:	08 95       	ret
	}
	else if (step==7)
    1f8c:	80 91 19 03 	lds	r24, 0x0319
    1f90:	87 30       	cpi	r24, 0x07	; 7
    1f92:	21 f4       	brne	.+8      	; 0x1f9c <stop+0xda>
	{
		isParking = 0;
    1f94:	10 92 18 03 	sts	0x0318, r1
		resetCounter();
    1f98:	0c 94 88 00 	jmp	0x110	; 0x110 <resetCounter>
    1f9c:	08 95       	ret

00001f9e <__vector_20>:

buffer_typedef rx_uart0 = {{0}, 0 , 0 ,0}; //declaring a receive buffer
buffer_typedef tx_uart0 = {{0}, 0 , 0 ,0}; //declaring a transmit buffer

ISR(USART0_RX_vect)
{
    1f9e:	1f 92       	push	r1
    1fa0:	0f 92       	push	r0
    1fa2:	0f b6       	in	r0, 0x3f	; 63
    1fa4:	0f 92       	push	r0
    1fa6:	11 24       	eor	r1, r1
    1fa8:	0b b6       	in	r0, 0x3b	; 59
    1faa:	0f 92       	push	r0
    1fac:	2f 93       	push	r18
    1fae:	3f 93       	push	r19
    1fb0:	4f 93       	push	r20
    1fb2:	8f 93       	push	r24
    1fb4:	9f 93       	push	r25
    1fb6:	af 93       	push	r26
    1fb8:	bf 93       	push	r27
    1fba:	ef 93       	push	r30
    1fbc:	ff 93       	push	r31
	if(rx_uart0.num_bytes == BUFFER_SIZE) { // if buffer full, set flag
    1fbe:	80 91 16 03 	lds	r24, 0x0316
    1fc2:	90 91 17 03 	lds	r25, 0x0317
    1fc6:	80 34       	cpi	r24, 0x40	; 64
    1fc8:	91 05       	cpc	r25, r1
    1fca:	31 f4       	brne	.+12     	; 0x1fd8 <__vector_20+0x3a>
		uart0_rx_overf_flag = 1;
    1fcc:	81 e0       	ldi	r24, 0x01	; 1
    1fce:	80 93 24 03 	sts	0x0324, r24
		unsigned char scrap_var;
		scrap_var = UDR0; //UDR0 has to be read, therefore the scrap variable
    1fd2:	80 91 c6 00 	lds	r24, 0x00C6
    1fd6:	16 c0       	rjmp	.+44     	; 0x2004 <__vector_20+0x66>
		} else if(rx_uart0.num_bytes < BUFFER_SIZE) { //if there is space in buffer     //CHECK IF THIS IS RIGHT LATER
    1fd8:	80 34       	cpi	r24, 0x40	; 64
    1fda:	91 05       	cpc	r25, r1
    1fdc:	e8 f4       	brcc	.+58     	; 0x2018 <__vector_20+0x7a>
		
		rx_uart0.buffer[rx_uart0.i_last] = UDR0;
    1fde:	e4 e1       	ldi	r30, 0x14	; 20
    1fe0:	f3 e0       	ldi	r31, 0x03	; 3
    1fe2:	20 81       	ld	r18, Z
    1fe4:	31 81       	ldd	r19, Z+1	; 0x01
    1fe6:	40 91 c6 00 	lds	r20, 0x00C6
    1fea:	d9 01       	movw	r26, r18
    1fec:	ae 52       	subi	r26, 0x2E	; 46
    1fee:	bd 4f       	sbci	r27, 0xFD	; 253
    1ff0:	4c 93       	st	X, r20
		
		rx_uart0.i_last++;
    1ff2:	2f 5f       	subi	r18, 0xFF	; 255
    1ff4:	3f 4f       	sbci	r19, 0xFF	; 255
    1ff6:	31 83       	std	Z+1, r19	; 0x01
    1ff8:	20 83       	st	Z, r18
		rx_uart0.num_bytes++;
    1ffa:	01 96       	adiw	r24, 0x01	; 1
    1ffc:	90 93 17 03 	sts	0x0317, r25
    2000:	80 93 16 03 	sts	0x0316, r24
		
	}
	
	//Check if buffer is full now. If yes, set full_flag
	if(rx_uart0.num_bytes == BUFFER_SIZE){
    2004:	80 91 16 03 	lds	r24, 0x0316
    2008:	90 91 17 03 	lds	r25, 0x0317
    200c:	80 34       	cpi	r24, 0x40	; 64
    200e:	91 05       	cpc	r25, r1
    2010:	19 f4       	brne	.+6      	; 0x2018 <__vector_20+0x7a>
		uart0_rx_full_flag = 1;
    2012:	81 e0       	ldi	r24, 0x01	; 1
    2014:	80 93 22 03 	sts	0x0322, r24
	}


	//If index has reached the end of buffer, set the i_last to 0 to go around
	if(rx_uart0.i_last == BUFFER_SIZE){
    2018:	80 91 14 03 	lds	r24, 0x0314
    201c:	90 91 15 03 	lds	r25, 0x0315
    2020:	80 34       	cpi	r24, 0x40	; 64
    2022:	91 05       	cpc	r25, r1
    2024:	21 f4       	brne	.+8      	; 0x202e <__vector_20+0x90>
		rx_uart0.i_last = 0;
    2026:	10 92 15 03 	sts	0x0315, r1
    202a:	10 92 14 03 	sts	0x0314, r1
	}

	uart0_rx_not_empty_flag = 1; //Not empty is something has been placed in buffer
    202e:	81 e0       	ldi	r24, 0x01	; 1
    2030:	80 93 21 03 	sts	0x0321, r24
}
    2034:	ff 91       	pop	r31
    2036:	ef 91       	pop	r30
    2038:	bf 91       	pop	r27
    203a:	af 91       	pop	r26
    203c:	9f 91       	pop	r25
    203e:	8f 91       	pop	r24
    2040:	4f 91       	pop	r20
    2042:	3f 91       	pop	r19
    2044:	2f 91       	pop	r18
    2046:	0f 90       	pop	r0
    2048:	0b be       	out	0x3b, r0	; 59
    204a:	0f 90       	pop	r0
    204c:	0f be       	out	0x3f, r0	; 63
    204e:	0f 90       	pop	r0
    2050:	1f 90       	pop	r1
    2052:	18 95       	reti

00002054 <__vector_22>:




ISR(USART0_TX_vect)
{
    2054:	1f 92       	push	r1
    2056:	0f 92       	push	r0
    2058:	0f b6       	in	r0, 0x3f	; 63
    205a:	0f 92       	push	r0
    205c:	11 24       	eor	r1, r1
    205e:	0b b6       	in	r0, 0x3b	; 59
    2060:	0f 92       	push	r0
    2062:	8f 93       	push	r24
    2064:	9f 93       	push	r25
    2066:	ef 93       	push	r30
    2068:	ff 93       	push	r31
	
	//check if buffer is full. If yes, clear flag because we gonna make room for
	if(tx_uart0.num_bytes == BUFFER_SIZE){
    206a:	80 91 d0 02 	lds	r24, 0x02D0
    206e:	90 91 d1 02 	lds	r25, 0x02D1
    2072:	80 34       	cpi	r24, 0x40	; 64
    2074:	91 05       	cpc	r25, r1
    2076:	19 f4       	brne	.+6      	; 0x207e <__vector_22+0x2a>
		uart0_tx_full_flag = 0;
    2078:	10 92 20 03 	sts	0x0320, r1
    207c:	02 c0       	rjmp	.+4      	; 0x2082 <__vector_22+0x2e>
	}
	
	//if data exist, put the sending_byte in the buffer
	if(tx_uart0.num_bytes > 0){
    207e:	89 2b       	or	r24, r25
    2080:	b9 f0       	breq	.+46     	; 0x20b0 <__vector_22+0x5c>
		
		UDR0 = tx_uart0.buffer[tx_uart0.i_first];
    2082:	e0 91 cc 02 	lds	r30, 0x02CC
    2086:	f0 91 cd 02 	lds	r31, 0x02CD
    208a:	e4 57       	subi	r30, 0x74	; 116
    208c:	fd 4f       	sbci	r31, 0xFD	; 253
    208e:	80 81       	ld	r24, Z
    2090:	80 93 c6 00 	sts	0x00C6, r24
		
		tx_uart0.i_first++;
    2094:	ec ec       	ldi	r30, 0xCC	; 204
    2096:	f2 e0       	ldi	r31, 0x02	; 2
    2098:	80 81       	ld	r24, Z
    209a:	91 81       	ldd	r25, Z+1	; 0x01
    209c:	01 96       	adiw	r24, 0x01	; 1
    209e:	91 83       	std	Z+1, r25	; 0x01
    20a0:	80 83       	st	Z, r24
		tx_uart0.num_bytes--;
    20a2:	e0 ed       	ldi	r30, 0xD0	; 208
    20a4:	f2 e0       	ldi	r31, 0x02	; 2
    20a6:	80 81       	ld	r24, Z
    20a8:	91 81       	ldd	r25, Z+1	; 0x01
    20aa:	01 97       	sbiw	r24, 0x01	; 1
    20ac:	91 83       	std	Z+1, r25	; 0x01
    20ae:	80 83       	st	Z, r24
	}
	
	//if reaches the end of buffer, set it to 0 to go around
	if(tx_uart0.i_first == BUFFER_SIZE){
    20b0:	80 91 cc 02 	lds	r24, 0x02CC
    20b4:	90 91 cd 02 	lds	r25, 0x02CD
    20b8:	80 34       	cpi	r24, 0x40	; 64
    20ba:	91 05       	cpc	r25, r1
    20bc:	21 f4       	brne	.+8      	; 0x20c6 <__vector_22+0x72>
		tx_uart0.i_first = 0;
    20be:	10 92 cd 02 	sts	0x02CD, r1
    20c2:	10 92 cc 02 	sts	0x02CC, r1
	}
	
	//if no more data in buffer, set not_empty_flag to 0
	if(tx_uart0.num_bytes == 0){
    20c6:	80 91 d0 02 	lds	r24, 0x02D0
    20ca:	90 91 d1 02 	lds	r25, 0x02D1
    20ce:	89 2b       	or	r24, r25
    20d0:	39 f4       	brne	.+14     	; 0x20e0 <__vector_22+0x8c>
		uart0_tx_not_empty_flag = 0;
    20d2:	10 92 23 03 	sts	0x0323, r1
		
		//Disable UART "TX hw buffer empty" interrupt here
		//I do this by setting UDRIE0 in UCSR0B to 0
		UCSR0B &= ~(1<<TXCIE0);
    20d6:	e1 ec       	ldi	r30, 0xC1	; 193
    20d8:	f0 e0       	ldi	r31, 0x00	; 0
    20da:	80 81       	ld	r24, Z
    20dc:	8f 7b       	andi	r24, 0xBF	; 191
    20de:	80 83       	st	Z, r24
		//if using shared RX/TX hardware buffer (WHICH I DO, OR DO WE?) enable RX data interrupt here
		//UCSR0B |= (1<<RXEN0);
		
	}
	
}
    20e0:	ff 91       	pop	r31
    20e2:	ef 91       	pop	r30
    20e4:	9f 91       	pop	r25
    20e6:	8f 91       	pop	r24
    20e8:	0f 90       	pop	r0
    20ea:	0b be       	out	0x3b, r0	; 59
    20ec:	0f 90       	pop	r0
    20ee:	0f be       	out	0x3f, r0	; 63
    20f0:	0f 90       	pop	r0
    20f2:	1f 90       	pop	r1
    20f4:	18 95       	reti

000020f6 <__subsf3>:
    20f6:	50 58       	subi	r21, 0x80	; 128

000020f8 <__addsf3>:
    20f8:	bb 27       	eor	r27, r27
    20fa:	aa 27       	eor	r26, r26
    20fc:	0e d0       	rcall	.+28     	; 0x211a <__addsf3x>
    20fe:	4d c1       	rjmp	.+666    	; 0x239a <__fp_round>
    2100:	3e d1       	rcall	.+636    	; 0x237e <__fp_pscA>
    2102:	30 f0       	brcs	.+12     	; 0x2110 <__addsf3+0x18>
    2104:	43 d1       	rcall	.+646    	; 0x238c <__fp_pscB>
    2106:	20 f0       	brcs	.+8      	; 0x2110 <__addsf3+0x18>
    2108:	31 f4       	brne	.+12     	; 0x2116 <__addsf3+0x1e>
    210a:	9f 3f       	cpi	r25, 0xFF	; 255
    210c:	11 f4       	brne	.+4      	; 0x2112 <__addsf3+0x1a>
    210e:	1e f4       	brtc	.+6      	; 0x2116 <__addsf3+0x1e>
    2110:	33 c1       	rjmp	.+614    	; 0x2378 <__fp_nan>
    2112:	0e f4       	brtc	.+2      	; 0x2116 <__addsf3+0x1e>
    2114:	e0 95       	com	r30
    2116:	e7 fb       	bst	r30, 7
    2118:	29 c1       	rjmp	.+594    	; 0x236c <__fp_inf>

0000211a <__addsf3x>:
    211a:	e9 2f       	mov	r30, r25
    211c:	4f d1       	rcall	.+670    	; 0x23bc <__fp_split3>
    211e:	80 f3       	brcs	.-32     	; 0x2100 <__addsf3+0x8>
    2120:	ba 17       	cp	r27, r26
    2122:	62 07       	cpc	r22, r18
    2124:	73 07       	cpc	r23, r19
    2126:	84 07       	cpc	r24, r20
    2128:	95 07       	cpc	r25, r21
    212a:	18 f0       	brcs	.+6      	; 0x2132 <__addsf3x+0x18>
    212c:	71 f4       	brne	.+28     	; 0x214a <__addsf3x+0x30>
    212e:	9e f5       	brtc	.+102    	; 0x2196 <__addsf3x+0x7c>
    2130:	67 c1       	rjmp	.+718    	; 0x2400 <__fp_zero>
    2132:	0e f4       	brtc	.+2      	; 0x2136 <__addsf3x+0x1c>
    2134:	e0 95       	com	r30
    2136:	0b 2e       	mov	r0, r27
    2138:	ba 2f       	mov	r27, r26
    213a:	a0 2d       	mov	r26, r0
    213c:	0b 01       	movw	r0, r22
    213e:	b9 01       	movw	r22, r18
    2140:	90 01       	movw	r18, r0
    2142:	0c 01       	movw	r0, r24
    2144:	ca 01       	movw	r24, r20
    2146:	a0 01       	movw	r20, r0
    2148:	11 24       	eor	r1, r1
    214a:	ff 27       	eor	r31, r31
    214c:	59 1b       	sub	r21, r25
    214e:	99 f0       	breq	.+38     	; 0x2176 <__addsf3x+0x5c>
    2150:	59 3f       	cpi	r21, 0xF9	; 249
    2152:	50 f4       	brcc	.+20     	; 0x2168 <__addsf3x+0x4e>
    2154:	50 3e       	cpi	r21, 0xE0	; 224
    2156:	68 f1       	brcs	.+90     	; 0x21b2 <__addsf3x+0x98>
    2158:	1a 16       	cp	r1, r26
    215a:	f0 40       	sbci	r31, 0x00	; 0
    215c:	a2 2f       	mov	r26, r18
    215e:	23 2f       	mov	r18, r19
    2160:	34 2f       	mov	r19, r20
    2162:	44 27       	eor	r20, r20
    2164:	58 5f       	subi	r21, 0xF8	; 248
    2166:	f3 cf       	rjmp	.-26     	; 0x214e <__addsf3x+0x34>
    2168:	46 95       	lsr	r20
    216a:	37 95       	ror	r19
    216c:	27 95       	ror	r18
    216e:	a7 95       	ror	r26
    2170:	f0 40       	sbci	r31, 0x00	; 0
    2172:	53 95       	inc	r21
    2174:	c9 f7       	brne	.-14     	; 0x2168 <__addsf3x+0x4e>
    2176:	7e f4       	brtc	.+30     	; 0x2196 <__addsf3x+0x7c>
    2178:	1f 16       	cp	r1, r31
    217a:	ba 0b       	sbc	r27, r26
    217c:	62 0b       	sbc	r22, r18
    217e:	73 0b       	sbc	r23, r19
    2180:	84 0b       	sbc	r24, r20
    2182:	ba f0       	brmi	.+46     	; 0x21b2 <__addsf3x+0x98>
    2184:	91 50       	subi	r25, 0x01	; 1
    2186:	a1 f0       	breq	.+40     	; 0x21b0 <__addsf3x+0x96>
    2188:	ff 0f       	add	r31, r31
    218a:	bb 1f       	adc	r27, r27
    218c:	66 1f       	adc	r22, r22
    218e:	77 1f       	adc	r23, r23
    2190:	88 1f       	adc	r24, r24
    2192:	c2 f7       	brpl	.-16     	; 0x2184 <__addsf3x+0x6a>
    2194:	0e c0       	rjmp	.+28     	; 0x21b2 <__addsf3x+0x98>
    2196:	ba 0f       	add	r27, r26
    2198:	62 1f       	adc	r22, r18
    219a:	73 1f       	adc	r23, r19
    219c:	84 1f       	adc	r24, r20
    219e:	48 f4       	brcc	.+18     	; 0x21b2 <__addsf3x+0x98>
    21a0:	87 95       	ror	r24
    21a2:	77 95       	ror	r23
    21a4:	67 95       	ror	r22
    21a6:	b7 95       	ror	r27
    21a8:	f7 95       	ror	r31
    21aa:	9e 3f       	cpi	r25, 0xFE	; 254
    21ac:	08 f0       	brcs	.+2      	; 0x21b0 <__addsf3x+0x96>
    21ae:	b3 cf       	rjmp	.-154    	; 0x2116 <__addsf3+0x1e>
    21b0:	93 95       	inc	r25
    21b2:	88 0f       	add	r24, r24
    21b4:	08 f0       	brcs	.+2      	; 0x21b8 <__addsf3x+0x9e>
    21b6:	99 27       	eor	r25, r25
    21b8:	ee 0f       	add	r30, r30
    21ba:	97 95       	ror	r25
    21bc:	87 95       	ror	r24
    21be:	08 95       	ret

000021c0 <__divsf3>:
    21c0:	0c d0       	rcall	.+24     	; 0x21da <__divsf3x>
    21c2:	eb c0       	rjmp	.+470    	; 0x239a <__fp_round>
    21c4:	e3 d0       	rcall	.+454    	; 0x238c <__fp_pscB>
    21c6:	40 f0       	brcs	.+16     	; 0x21d8 <__divsf3+0x18>
    21c8:	da d0       	rcall	.+436    	; 0x237e <__fp_pscA>
    21ca:	30 f0       	brcs	.+12     	; 0x21d8 <__divsf3+0x18>
    21cc:	21 f4       	brne	.+8      	; 0x21d6 <__divsf3+0x16>
    21ce:	5f 3f       	cpi	r21, 0xFF	; 255
    21d0:	19 f0       	breq	.+6      	; 0x21d8 <__divsf3+0x18>
    21d2:	cc c0       	rjmp	.+408    	; 0x236c <__fp_inf>
    21d4:	51 11       	cpse	r21, r1
    21d6:	15 c1       	rjmp	.+554    	; 0x2402 <__fp_szero>
    21d8:	cf c0       	rjmp	.+414    	; 0x2378 <__fp_nan>

000021da <__divsf3x>:
    21da:	f0 d0       	rcall	.+480    	; 0x23bc <__fp_split3>
    21dc:	98 f3       	brcs	.-26     	; 0x21c4 <__divsf3+0x4>

000021de <__divsf3_pse>:
    21de:	99 23       	and	r25, r25
    21e0:	c9 f3       	breq	.-14     	; 0x21d4 <__divsf3+0x14>
    21e2:	55 23       	and	r21, r21
    21e4:	b1 f3       	breq	.-20     	; 0x21d2 <__divsf3+0x12>
    21e6:	95 1b       	sub	r25, r21
    21e8:	55 0b       	sbc	r21, r21
    21ea:	bb 27       	eor	r27, r27
    21ec:	aa 27       	eor	r26, r26
    21ee:	62 17       	cp	r22, r18
    21f0:	73 07       	cpc	r23, r19
    21f2:	84 07       	cpc	r24, r20
    21f4:	38 f0       	brcs	.+14     	; 0x2204 <__divsf3_pse+0x26>
    21f6:	9f 5f       	subi	r25, 0xFF	; 255
    21f8:	5f 4f       	sbci	r21, 0xFF	; 255
    21fa:	22 0f       	add	r18, r18
    21fc:	33 1f       	adc	r19, r19
    21fe:	44 1f       	adc	r20, r20
    2200:	aa 1f       	adc	r26, r26
    2202:	a9 f3       	breq	.-22     	; 0x21ee <__divsf3_pse+0x10>
    2204:	33 d0       	rcall	.+102    	; 0x226c <__divsf3_pse+0x8e>
    2206:	0e 2e       	mov	r0, r30
    2208:	3a f0       	brmi	.+14     	; 0x2218 <__divsf3_pse+0x3a>
    220a:	e0 e8       	ldi	r30, 0x80	; 128
    220c:	30 d0       	rcall	.+96     	; 0x226e <__divsf3_pse+0x90>
    220e:	91 50       	subi	r25, 0x01	; 1
    2210:	50 40       	sbci	r21, 0x00	; 0
    2212:	e6 95       	lsr	r30
    2214:	00 1c       	adc	r0, r0
    2216:	ca f7       	brpl	.-14     	; 0x220a <__divsf3_pse+0x2c>
    2218:	29 d0       	rcall	.+82     	; 0x226c <__divsf3_pse+0x8e>
    221a:	fe 2f       	mov	r31, r30
    221c:	27 d0       	rcall	.+78     	; 0x226c <__divsf3_pse+0x8e>
    221e:	66 0f       	add	r22, r22
    2220:	77 1f       	adc	r23, r23
    2222:	88 1f       	adc	r24, r24
    2224:	bb 1f       	adc	r27, r27
    2226:	26 17       	cp	r18, r22
    2228:	37 07       	cpc	r19, r23
    222a:	48 07       	cpc	r20, r24
    222c:	ab 07       	cpc	r26, r27
    222e:	b0 e8       	ldi	r27, 0x80	; 128
    2230:	09 f0       	breq	.+2      	; 0x2234 <__divsf3_pse+0x56>
    2232:	bb 0b       	sbc	r27, r27
    2234:	80 2d       	mov	r24, r0
    2236:	bf 01       	movw	r22, r30
    2238:	ff 27       	eor	r31, r31
    223a:	93 58       	subi	r25, 0x83	; 131
    223c:	5f 4f       	sbci	r21, 0xFF	; 255
    223e:	2a f0       	brmi	.+10     	; 0x224a <__divsf3_pse+0x6c>
    2240:	9e 3f       	cpi	r25, 0xFE	; 254
    2242:	51 05       	cpc	r21, r1
    2244:	68 f0       	brcs	.+26     	; 0x2260 <__divsf3_pse+0x82>
    2246:	92 c0       	rjmp	.+292    	; 0x236c <__fp_inf>
    2248:	dc c0       	rjmp	.+440    	; 0x2402 <__fp_szero>
    224a:	5f 3f       	cpi	r21, 0xFF	; 255
    224c:	ec f3       	brlt	.-6      	; 0x2248 <__divsf3_pse+0x6a>
    224e:	98 3e       	cpi	r25, 0xE8	; 232
    2250:	dc f3       	brlt	.-10     	; 0x2248 <__divsf3_pse+0x6a>
    2252:	86 95       	lsr	r24
    2254:	77 95       	ror	r23
    2256:	67 95       	ror	r22
    2258:	b7 95       	ror	r27
    225a:	f7 95       	ror	r31
    225c:	9f 5f       	subi	r25, 0xFF	; 255
    225e:	c9 f7       	brne	.-14     	; 0x2252 <__divsf3_pse+0x74>
    2260:	88 0f       	add	r24, r24
    2262:	91 1d       	adc	r25, r1
    2264:	96 95       	lsr	r25
    2266:	87 95       	ror	r24
    2268:	97 f9       	bld	r25, 7
    226a:	08 95       	ret
    226c:	e1 e0       	ldi	r30, 0x01	; 1
    226e:	66 0f       	add	r22, r22
    2270:	77 1f       	adc	r23, r23
    2272:	88 1f       	adc	r24, r24
    2274:	bb 1f       	adc	r27, r27
    2276:	62 17       	cp	r22, r18
    2278:	73 07       	cpc	r23, r19
    227a:	84 07       	cpc	r24, r20
    227c:	ba 07       	cpc	r27, r26
    227e:	20 f0       	brcs	.+8      	; 0x2288 <__divsf3_pse+0xaa>
    2280:	62 1b       	sub	r22, r18
    2282:	73 0b       	sbc	r23, r19
    2284:	84 0b       	sbc	r24, r20
    2286:	ba 0b       	sbc	r27, r26
    2288:	ee 1f       	adc	r30, r30
    228a:	88 f7       	brcc	.-30     	; 0x226e <__divsf3_pse+0x90>
    228c:	e0 95       	com	r30
    228e:	08 95       	ret

00002290 <__fixsfsi>:
    2290:	04 d0       	rcall	.+8      	; 0x229a <__fixunssfsi>
    2292:	68 94       	set
    2294:	b1 11       	cpse	r27, r1
    2296:	b5 c0       	rjmp	.+362    	; 0x2402 <__fp_szero>
    2298:	08 95       	ret

0000229a <__fixunssfsi>:
    229a:	98 d0       	rcall	.+304    	; 0x23cc <__fp_splitA>
    229c:	88 f0       	brcs	.+34     	; 0x22c0 <__fixunssfsi+0x26>
    229e:	9f 57       	subi	r25, 0x7F	; 127
    22a0:	90 f0       	brcs	.+36     	; 0x22c6 <__fixunssfsi+0x2c>
    22a2:	b9 2f       	mov	r27, r25
    22a4:	99 27       	eor	r25, r25
    22a6:	b7 51       	subi	r27, 0x17	; 23
    22a8:	a0 f0       	brcs	.+40     	; 0x22d2 <__fixunssfsi+0x38>
    22aa:	d1 f0       	breq	.+52     	; 0x22e0 <__fixunssfsi+0x46>
    22ac:	66 0f       	add	r22, r22
    22ae:	77 1f       	adc	r23, r23
    22b0:	88 1f       	adc	r24, r24
    22b2:	99 1f       	adc	r25, r25
    22b4:	1a f0       	brmi	.+6      	; 0x22bc <__fixunssfsi+0x22>
    22b6:	ba 95       	dec	r27
    22b8:	c9 f7       	brne	.-14     	; 0x22ac <__fixunssfsi+0x12>
    22ba:	12 c0       	rjmp	.+36     	; 0x22e0 <__fixunssfsi+0x46>
    22bc:	b1 30       	cpi	r27, 0x01	; 1
    22be:	81 f0       	breq	.+32     	; 0x22e0 <__fixunssfsi+0x46>
    22c0:	9f d0       	rcall	.+318    	; 0x2400 <__fp_zero>
    22c2:	b1 e0       	ldi	r27, 0x01	; 1
    22c4:	08 95       	ret
    22c6:	9c c0       	rjmp	.+312    	; 0x2400 <__fp_zero>
    22c8:	67 2f       	mov	r22, r23
    22ca:	78 2f       	mov	r23, r24
    22cc:	88 27       	eor	r24, r24
    22ce:	b8 5f       	subi	r27, 0xF8	; 248
    22d0:	39 f0       	breq	.+14     	; 0x22e0 <__fixunssfsi+0x46>
    22d2:	b9 3f       	cpi	r27, 0xF9	; 249
    22d4:	cc f3       	brlt	.-14     	; 0x22c8 <__fixunssfsi+0x2e>
    22d6:	86 95       	lsr	r24
    22d8:	77 95       	ror	r23
    22da:	67 95       	ror	r22
    22dc:	b3 95       	inc	r27
    22de:	d9 f7       	brne	.-10     	; 0x22d6 <__fixunssfsi+0x3c>
    22e0:	3e f4       	brtc	.+14     	; 0x22f0 <__fixunssfsi+0x56>
    22e2:	90 95       	com	r25
    22e4:	80 95       	com	r24
    22e6:	70 95       	com	r23
    22e8:	61 95       	neg	r22
    22ea:	7f 4f       	sbci	r23, 0xFF	; 255
    22ec:	8f 4f       	sbci	r24, 0xFF	; 255
    22ee:	9f 4f       	sbci	r25, 0xFF	; 255
    22f0:	08 95       	ret

000022f2 <__floatunsisf>:
    22f2:	e8 94       	clt
    22f4:	09 c0       	rjmp	.+18     	; 0x2308 <__floatsisf+0x12>

000022f6 <__floatsisf>:
    22f6:	97 fb       	bst	r25, 7
    22f8:	3e f4       	brtc	.+14     	; 0x2308 <__floatsisf+0x12>
    22fa:	90 95       	com	r25
    22fc:	80 95       	com	r24
    22fe:	70 95       	com	r23
    2300:	61 95       	neg	r22
    2302:	7f 4f       	sbci	r23, 0xFF	; 255
    2304:	8f 4f       	sbci	r24, 0xFF	; 255
    2306:	9f 4f       	sbci	r25, 0xFF	; 255
    2308:	99 23       	and	r25, r25
    230a:	a9 f0       	breq	.+42     	; 0x2336 <__floatsisf+0x40>
    230c:	f9 2f       	mov	r31, r25
    230e:	96 e9       	ldi	r25, 0x96	; 150
    2310:	bb 27       	eor	r27, r27
    2312:	93 95       	inc	r25
    2314:	f6 95       	lsr	r31
    2316:	87 95       	ror	r24
    2318:	77 95       	ror	r23
    231a:	67 95       	ror	r22
    231c:	b7 95       	ror	r27
    231e:	f1 11       	cpse	r31, r1
    2320:	f8 cf       	rjmp	.-16     	; 0x2312 <__floatsisf+0x1c>
    2322:	fa f4       	brpl	.+62     	; 0x2362 <__floatsisf+0x6c>
    2324:	bb 0f       	add	r27, r27
    2326:	11 f4       	brne	.+4      	; 0x232c <__floatsisf+0x36>
    2328:	60 ff       	sbrs	r22, 0
    232a:	1b c0       	rjmp	.+54     	; 0x2362 <__floatsisf+0x6c>
    232c:	6f 5f       	subi	r22, 0xFF	; 255
    232e:	7f 4f       	sbci	r23, 0xFF	; 255
    2330:	8f 4f       	sbci	r24, 0xFF	; 255
    2332:	9f 4f       	sbci	r25, 0xFF	; 255
    2334:	16 c0       	rjmp	.+44     	; 0x2362 <__floatsisf+0x6c>
    2336:	88 23       	and	r24, r24
    2338:	11 f0       	breq	.+4      	; 0x233e <__floatsisf+0x48>
    233a:	96 e9       	ldi	r25, 0x96	; 150
    233c:	11 c0       	rjmp	.+34     	; 0x2360 <__floatsisf+0x6a>
    233e:	77 23       	and	r23, r23
    2340:	21 f0       	breq	.+8      	; 0x234a <__floatsisf+0x54>
    2342:	9e e8       	ldi	r25, 0x8E	; 142
    2344:	87 2f       	mov	r24, r23
    2346:	76 2f       	mov	r23, r22
    2348:	05 c0       	rjmp	.+10     	; 0x2354 <__floatsisf+0x5e>
    234a:	66 23       	and	r22, r22
    234c:	71 f0       	breq	.+28     	; 0x236a <__floatsisf+0x74>
    234e:	96 e8       	ldi	r25, 0x86	; 134
    2350:	86 2f       	mov	r24, r22
    2352:	70 e0       	ldi	r23, 0x00	; 0
    2354:	60 e0       	ldi	r22, 0x00	; 0
    2356:	2a f0       	brmi	.+10     	; 0x2362 <__floatsisf+0x6c>
    2358:	9a 95       	dec	r25
    235a:	66 0f       	add	r22, r22
    235c:	77 1f       	adc	r23, r23
    235e:	88 1f       	adc	r24, r24
    2360:	da f7       	brpl	.-10     	; 0x2358 <__floatsisf+0x62>
    2362:	88 0f       	add	r24, r24
    2364:	96 95       	lsr	r25
    2366:	87 95       	ror	r24
    2368:	97 f9       	bld	r25, 7
    236a:	08 95       	ret

0000236c <__fp_inf>:
    236c:	97 f9       	bld	r25, 7
    236e:	9f 67       	ori	r25, 0x7F	; 127
    2370:	80 e8       	ldi	r24, 0x80	; 128
    2372:	70 e0       	ldi	r23, 0x00	; 0
    2374:	60 e0       	ldi	r22, 0x00	; 0
    2376:	08 95       	ret

00002378 <__fp_nan>:
    2378:	9f ef       	ldi	r25, 0xFF	; 255
    237a:	80 ec       	ldi	r24, 0xC0	; 192
    237c:	08 95       	ret

0000237e <__fp_pscA>:
    237e:	00 24       	eor	r0, r0
    2380:	0a 94       	dec	r0
    2382:	16 16       	cp	r1, r22
    2384:	17 06       	cpc	r1, r23
    2386:	18 06       	cpc	r1, r24
    2388:	09 06       	cpc	r0, r25
    238a:	08 95       	ret

0000238c <__fp_pscB>:
    238c:	00 24       	eor	r0, r0
    238e:	0a 94       	dec	r0
    2390:	12 16       	cp	r1, r18
    2392:	13 06       	cpc	r1, r19
    2394:	14 06       	cpc	r1, r20
    2396:	05 06       	cpc	r0, r21
    2398:	08 95       	ret

0000239a <__fp_round>:
    239a:	09 2e       	mov	r0, r25
    239c:	03 94       	inc	r0
    239e:	00 0c       	add	r0, r0
    23a0:	11 f4       	brne	.+4      	; 0x23a6 <__fp_round+0xc>
    23a2:	88 23       	and	r24, r24
    23a4:	52 f0       	brmi	.+20     	; 0x23ba <__fp_round+0x20>
    23a6:	bb 0f       	add	r27, r27
    23a8:	40 f4       	brcc	.+16     	; 0x23ba <__fp_round+0x20>
    23aa:	bf 2b       	or	r27, r31
    23ac:	11 f4       	brne	.+4      	; 0x23b2 <__fp_round+0x18>
    23ae:	60 ff       	sbrs	r22, 0
    23b0:	04 c0       	rjmp	.+8      	; 0x23ba <__fp_round+0x20>
    23b2:	6f 5f       	subi	r22, 0xFF	; 255
    23b4:	7f 4f       	sbci	r23, 0xFF	; 255
    23b6:	8f 4f       	sbci	r24, 0xFF	; 255
    23b8:	9f 4f       	sbci	r25, 0xFF	; 255
    23ba:	08 95       	ret

000023bc <__fp_split3>:
    23bc:	57 fd       	sbrc	r21, 7
    23be:	90 58       	subi	r25, 0x80	; 128
    23c0:	44 0f       	add	r20, r20
    23c2:	55 1f       	adc	r21, r21
    23c4:	59 f0       	breq	.+22     	; 0x23dc <__fp_splitA+0x10>
    23c6:	5f 3f       	cpi	r21, 0xFF	; 255
    23c8:	71 f0       	breq	.+28     	; 0x23e6 <__fp_splitA+0x1a>
    23ca:	47 95       	ror	r20

000023cc <__fp_splitA>:
    23cc:	88 0f       	add	r24, r24
    23ce:	97 fb       	bst	r25, 7
    23d0:	99 1f       	adc	r25, r25
    23d2:	61 f0       	breq	.+24     	; 0x23ec <__fp_splitA+0x20>
    23d4:	9f 3f       	cpi	r25, 0xFF	; 255
    23d6:	79 f0       	breq	.+30     	; 0x23f6 <__fp_splitA+0x2a>
    23d8:	87 95       	ror	r24
    23da:	08 95       	ret
    23dc:	12 16       	cp	r1, r18
    23de:	13 06       	cpc	r1, r19
    23e0:	14 06       	cpc	r1, r20
    23e2:	55 1f       	adc	r21, r21
    23e4:	f2 cf       	rjmp	.-28     	; 0x23ca <__fp_split3+0xe>
    23e6:	46 95       	lsr	r20
    23e8:	f1 df       	rcall	.-30     	; 0x23cc <__fp_splitA>
    23ea:	08 c0       	rjmp	.+16     	; 0x23fc <__fp_splitA+0x30>
    23ec:	16 16       	cp	r1, r22
    23ee:	17 06       	cpc	r1, r23
    23f0:	18 06       	cpc	r1, r24
    23f2:	99 1f       	adc	r25, r25
    23f4:	f1 cf       	rjmp	.-30     	; 0x23d8 <__fp_splitA+0xc>
    23f6:	86 95       	lsr	r24
    23f8:	71 05       	cpc	r23, r1
    23fa:	61 05       	cpc	r22, r1
    23fc:	08 94       	sec
    23fe:	08 95       	ret

00002400 <__fp_zero>:
    2400:	e8 94       	clt

00002402 <__fp_szero>:
    2402:	bb 27       	eor	r27, r27
    2404:	66 27       	eor	r22, r22
    2406:	77 27       	eor	r23, r23
    2408:	cb 01       	movw	r24, r22
    240a:	97 f9       	bld	r25, 7
    240c:	08 95       	ret

0000240e <__mulsf3>:
    240e:	0b d0       	rcall	.+22     	; 0x2426 <__mulsf3x>
    2410:	c4 cf       	rjmp	.-120    	; 0x239a <__fp_round>
    2412:	b5 df       	rcall	.-150    	; 0x237e <__fp_pscA>
    2414:	28 f0       	brcs	.+10     	; 0x2420 <__mulsf3+0x12>
    2416:	ba df       	rcall	.-140    	; 0x238c <__fp_pscB>
    2418:	18 f0       	brcs	.+6      	; 0x2420 <__mulsf3+0x12>
    241a:	95 23       	and	r25, r21
    241c:	09 f0       	breq	.+2      	; 0x2420 <__mulsf3+0x12>
    241e:	a6 cf       	rjmp	.-180    	; 0x236c <__fp_inf>
    2420:	ab cf       	rjmp	.-170    	; 0x2378 <__fp_nan>
    2422:	11 24       	eor	r1, r1
    2424:	ee cf       	rjmp	.-36     	; 0x2402 <__fp_szero>

00002426 <__mulsf3x>:
    2426:	ca df       	rcall	.-108    	; 0x23bc <__fp_split3>
    2428:	a0 f3       	brcs	.-24     	; 0x2412 <__mulsf3+0x4>

0000242a <__mulsf3_pse>:
    242a:	95 9f       	mul	r25, r21
    242c:	d1 f3       	breq	.-12     	; 0x2422 <__mulsf3+0x14>
    242e:	95 0f       	add	r25, r21
    2430:	50 e0       	ldi	r21, 0x00	; 0
    2432:	55 1f       	adc	r21, r21
    2434:	62 9f       	mul	r22, r18
    2436:	f0 01       	movw	r30, r0
    2438:	72 9f       	mul	r23, r18
    243a:	bb 27       	eor	r27, r27
    243c:	f0 0d       	add	r31, r0
    243e:	b1 1d       	adc	r27, r1
    2440:	63 9f       	mul	r22, r19
    2442:	aa 27       	eor	r26, r26
    2444:	f0 0d       	add	r31, r0
    2446:	b1 1d       	adc	r27, r1
    2448:	aa 1f       	adc	r26, r26
    244a:	64 9f       	mul	r22, r20
    244c:	66 27       	eor	r22, r22
    244e:	b0 0d       	add	r27, r0
    2450:	a1 1d       	adc	r26, r1
    2452:	66 1f       	adc	r22, r22
    2454:	82 9f       	mul	r24, r18
    2456:	22 27       	eor	r18, r18
    2458:	b0 0d       	add	r27, r0
    245a:	a1 1d       	adc	r26, r1
    245c:	62 1f       	adc	r22, r18
    245e:	73 9f       	mul	r23, r19
    2460:	b0 0d       	add	r27, r0
    2462:	a1 1d       	adc	r26, r1
    2464:	62 1f       	adc	r22, r18
    2466:	83 9f       	mul	r24, r19
    2468:	a0 0d       	add	r26, r0
    246a:	61 1d       	adc	r22, r1
    246c:	22 1f       	adc	r18, r18
    246e:	74 9f       	mul	r23, r20
    2470:	33 27       	eor	r19, r19
    2472:	a0 0d       	add	r26, r0
    2474:	61 1d       	adc	r22, r1
    2476:	23 1f       	adc	r18, r19
    2478:	84 9f       	mul	r24, r20
    247a:	60 0d       	add	r22, r0
    247c:	21 1d       	adc	r18, r1
    247e:	82 2f       	mov	r24, r18
    2480:	76 2f       	mov	r23, r22
    2482:	6a 2f       	mov	r22, r26
    2484:	11 24       	eor	r1, r1
    2486:	9f 57       	subi	r25, 0x7F	; 127
    2488:	50 40       	sbci	r21, 0x00	; 0
    248a:	8a f0       	brmi	.+34     	; 0x24ae <__mulsf3_pse+0x84>
    248c:	e1 f0       	breq	.+56     	; 0x24c6 <__mulsf3_pse+0x9c>
    248e:	88 23       	and	r24, r24
    2490:	4a f0       	brmi	.+18     	; 0x24a4 <__mulsf3_pse+0x7a>
    2492:	ee 0f       	add	r30, r30
    2494:	ff 1f       	adc	r31, r31
    2496:	bb 1f       	adc	r27, r27
    2498:	66 1f       	adc	r22, r22
    249a:	77 1f       	adc	r23, r23
    249c:	88 1f       	adc	r24, r24
    249e:	91 50       	subi	r25, 0x01	; 1
    24a0:	50 40       	sbci	r21, 0x00	; 0
    24a2:	a9 f7       	brne	.-22     	; 0x248e <__mulsf3_pse+0x64>
    24a4:	9e 3f       	cpi	r25, 0xFE	; 254
    24a6:	51 05       	cpc	r21, r1
    24a8:	70 f0       	brcs	.+28     	; 0x24c6 <__mulsf3_pse+0x9c>
    24aa:	60 cf       	rjmp	.-320    	; 0x236c <__fp_inf>
    24ac:	aa cf       	rjmp	.-172    	; 0x2402 <__fp_szero>
    24ae:	5f 3f       	cpi	r21, 0xFF	; 255
    24b0:	ec f3       	brlt	.-6      	; 0x24ac <__mulsf3_pse+0x82>
    24b2:	98 3e       	cpi	r25, 0xE8	; 232
    24b4:	dc f3       	brlt	.-10     	; 0x24ac <__mulsf3_pse+0x82>
    24b6:	86 95       	lsr	r24
    24b8:	77 95       	ror	r23
    24ba:	67 95       	ror	r22
    24bc:	b7 95       	ror	r27
    24be:	f7 95       	ror	r31
    24c0:	e7 95       	ror	r30
    24c2:	9f 5f       	subi	r25, 0xFF	; 255
    24c4:	c1 f7       	brne	.-16     	; 0x24b6 <__mulsf3_pse+0x8c>
    24c6:	fe 2b       	or	r31, r30
    24c8:	88 0f       	add	r24, r24
    24ca:	91 1d       	adc	r25, r1
    24cc:	96 95       	lsr	r25
    24ce:	87 95       	ror	r24
    24d0:	97 f9       	bld	r25, 7
    24d2:	08 95       	ret

000024d4 <__divmodhi4>:
    24d4:	97 fb       	bst	r25, 7
    24d6:	07 2e       	mov	r0, r23
    24d8:	16 f4       	brtc	.+4      	; 0x24de <__divmodhi4+0xa>
    24da:	00 94       	com	r0
    24dc:	06 d0       	rcall	.+12     	; 0x24ea <__divmodhi4_neg1>
    24de:	77 fd       	sbrc	r23, 7
    24e0:	08 d0       	rcall	.+16     	; 0x24f2 <__divmodhi4_neg2>
    24e2:	0b d0       	rcall	.+22     	; 0x24fa <__udivmodhi4>
    24e4:	07 fc       	sbrc	r0, 7
    24e6:	05 d0       	rcall	.+10     	; 0x24f2 <__divmodhi4_neg2>
    24e8:	3e f4       	brtc	.+14     	; 0x24f8 <__divmodhi4_exit>

000024ea <__divmodhi4_neg1>:
    24ea:	90 95       	com	r25
    24ec:	81 95       	neg	r24
    24ee:	9f 4f       	sbci	r25, 0xFF	; 255
    24f0:	08 95       	ret

000024f2 <__divmodhi4_neg2>:
    24f2:	70 95       	com	r23
    24f4:	61 95       	neg	r22
    24f6:	7f 4f       	sbci	r23, 0xFF	; 255

000024f8 <__divmodhi4_exit>:
    24f8:	08 95       	ret

000024fa <__udivmodhi4>:
    24fa:	aa 1b       	sub	r26, r26
    24fc:	bb 1b       	sub	r27, r27
    24fe:	51 e1       	ldi	r21, 0x11	; 17
    2500:	07 c0       	rjmp	.+14     	; 0x2510 <__udivmodhi4_ep>

00002502 <__udivmodhi4_loop>:
    2502:	aa 1f       	adc	r26, r26
    2504:	bb 1f       	adc	r27, r27
    2506:	a6 17       	cp	r26, r22
    2508:	b7 07       	cpc	r27, r23
    250a:	10 f0       	brcs	.+4      	; 0x2510 <__udivmodhi4_ep>
    250c:	a6 1b       	sub	r26, r22
    250e:	b7 0b       	sbc	r27, r23

00002510 <__udivmodhi4_ep>:
    2510:	88 1f       	adc	r24, r24
    2512:	99 1f       	adc	r25, r25
    2514:	5a 95       	dec	r21
    2516:	a9 f7       	brne	.-22     	; 0x2502 <__udivmodhi4_loop>
    2518:	80 95       	com	r24
    251a:	90 95       	com	r25
    251c:	bc 01       	movw	r22, r24
    251e:	cd 01       	movw	r24, r26
    2520:	08 95       	ret

00002522 <strcpy>:
    2522:	fb 01       	movw	r30, r22
    2524:	dc 01       	movw	r26, r24
    2526:	01 90       	ld	r0, Z+
    2528:	0d 92       	st	X+, r0
    252a:	00 20       	and	r0, r0
    252c:	e1 f7       	brne	.-8      	; 0x2526 <strcpy+0x4>
    252e:	08 95       	ret

00002530 <_exit>:
    2530:	f8 94       	cli

00002532 <__stop_program>:
    2532:	ff cf       	rjmp	.-2      	; 0x2532 <__stop_program>
